CCS PCM C Compiler, Version 5.015, 5967               21-nov-17 19:01

               Filename:   D:\Proyectos\IonicPed + Zapper\Desarrollo\Software\PIZ.lst

               ROM used:   2523 words (31%)
                           Largest free fragment is 2048
               RAM used:   77 (21%) at main() level
                           105 (29%) worst case
               Stack used: 7 locations
               Stack size: 8

*
0000:  MOVLW  09
0001:  MOVWF  0A
0002:  GOTO   153
0003:  NOP
.................... #include <16f876a.h> 
.................... //////////// Standard Header file for the PIC16F876A device //////////////// 
.................... /////////////////////////////////////////////////////////////////////////// 
.................... ////        (C) Copyright 1996, 2013 Custom Computer Services          //// 
.................... //// This source code may only be used by licensed users of the CCS C  //// 
.................... //// compiler.  This source code may only be distributed to other      //// 
.................... //// licensed users of the CCS C compiler.  No other use, reproduction //// 
.................... //// or distribution is permitted without written permission.          //// 
.................... //// Derivative programs created using this software in object code    //// 
.................... //// form are not restricted in any way.                               //// 
.................... /////////////////////////////////////////////////////////////////////////// 
.................... #device PIC16F876A 
0004:  DATA 20,10
0005:  DATA 5A,10
0006:  DATA 20,10
0007:  DATA 20,10
0008:  DATA 20,10
0009:  DATA 20,10
000A:  DATA 20,10
000B:  DATA 20,10
000C:  DATA 00,00
000D:  DATA 20,10
000E:  DATA DA,22
000F:  DATA 20,10
0010:  DATA 20,10
0011:  DATA 20,10
0012:  DATA 20,10
0013:  DATA 20,10
0014:  DATA 20,10
0015:  DATA 00,01
0016:  DATA 20,10
0017:  DATA DA,22
0018:  DATA 4C,10
0019:  DATA 20,10
001A:  DATA 20,10
001B:  DATA 20,10
001C:  DATA 20,10
001D:  DATA 20,10
001E:  DATA 00,01
001F:  DATA 20,10
0020:  DATA DA,22
0021:  DATA CC,22
0022:  DATA 20,10
0023:  DATA 20,10
0024:  DATA 20,10
0025:  DATA 20,10
0026:  DATA 20,10
0027:  DATA 00,01
0028:  DATA 20,10
0029:  DATA DA,22
002A:  DATA CC,22
002B:  DATA 43,10
002C:  DATA 20,10
002D:  DATA 20,10
002E:  DATA 20,10
002F:  DATA 20,10
0030:  DATA 00,01
0031:  DATA 20,10
0032:  DATA DA,22
0033:  DATA CC,22
0034:  DATA 43,2A
0035:  DATA 20,10
0036:  DATA 20,10
0037:  DATA 20,10
0038:  DATA 20,10
0039:  DATA 00,01
003A:  DATA 20,10
003B:  DATA DA,22
003C:  DATA CC,22
003D:  DATA 43,2A
003E:  DATA 52,10
003F:  DATA 20,10
0040:  DATA 20,10
0041:  DATA 20,10
0042:  DATA 00,01
0043:  DATA 20,10
0044:  DATA DA,22
0045:  DATA CC,22
0046:  DATA 43,2A
0047:  DATA D2,27
0048:  DATA 20,10
0049:  DATA 20,10
004A:  DATA 20,10
004B:  DATA 00,01
004C:  DATA 20,10
004D:  DATA DA,22
004E:  DATA CC,22
004F:  DATA 43,2A
0050:  DATA D2,27
0051:  DATA 4E,10
0052:  DATA 20,10
0053:  DATA 20,10
0054:  DATA 00,01
0055:  DATA 20,10
0056:  DATA DA,22
0057:  DATA CC,22
0058:  DATA 43,2A
0059:  DATA D2,27
005A:  DATA 4E,10
005B:  DATA 43,10
005C:  DATA 20,10
005D:  DATA 00,01
005E:  DATA 20,10
005F:  DATA DA,22
0060:  DATA CC,22
0061:  DATA 43,2A
0062:  DATA D2,27
0063:  DATA 4E,10
0064:  DATA C3,20
0065:  DATA 20,10
0066:  DATA 00,01
0067:  DATA 0A,2A
0068:  DATA 4D,28
0069:  DATA A0,12
006A:  DATA 30,19
006B:  DATA 64,1D
006C:  DATA 25,18
006D:  DATA 32,32
006E:  DATA 20,10
006F:  DATA A0,12
0070:  DATA 31,17
0071:  DATA 31,33
0072:  DATA 41,00
0073:  DATA 0A,2A
0074:  DATA 4D,28
0075:  DATA A0,12
0076:  DATA 30,19
0077:  DATA 64,10
0078:  DATA 25,18
0079:  DATA 32,32
007A:  DATA 20,10
007B:  DATA A0,12
007C:  DATA 31,17
007D:  DATA 31,33
007E:  DATA 41,00
007F:  DATA 45,2C
0080:  DATA C3,22
0081:  DATA D3,27
0082:  DATA 20,10
0083:  DATA D3,27
0084:  DATA CC,2A
0085:  DATA C3,24
0086:  DATA 4F,27
0087:  DATA 00,01
0088:  DATA 0A,10
0089:  DATA 20,10
008A:  DATA 20,10
008B:  DATA A0,12
008C:  DATA 31,17
008D:  DATA 31,33
008E:  DATA 41,10
008F:  DATA 20,10
0090:  DATA 20,10
0091:  DATA 20,00
0092:  DATA 2A,10
0093:  DATA 20,23
0094:  DATA CF,27
0095:  DATA D4,29
0096:  DATA C8,27
0097:  DATA D7,22
0098:  DATA 52,10
0099:  DATA 20,15
009A:  DATA 00,01
009B:  DATA 0A,10
009C:  DATA 20,10
009D:  DATA 20,10
009E:  DATA A0,12
009F:  DATA 31,17
00A0:  DATA 31,33
00A1:  DATA 41,10
00A2:  DATA 20,10
00A3:  DATA 20,10
00A4:  DATA 20,00
00A5:  DATA 50,29
00A6:  DATA CF,21
00A7:  DATA C5,29
00A8:  DATA 4F,10
00A9:  DATA C4,22
00AA:  DATA D4,22
00AB:  DATA CE,24
00AC:  DATA C4,27
00AD:  DATA 00,00
00AE:  DATA 20,23
00AF:  DATA CF,27
00B0:  DATA D4,29
00B1:  DATA C8,27
00B2:  DATA D7,22
00B3:  DATA 52,10
00B4:  DATA A0,27
00B5:  DATA 4E,10
00B6:  DATA 00,01
00B7:  DATA 20,2D
00B8:  DATA 41,28
00B9:  DATA D0,22
00BA:  DATA 52,10
00BB:  DATA 20,10
00BC:  DATA 20,10
00BD:  DATA A0,27
00BE:  DATA 4E,10
00BF:  DATA 00,01
00C0:  DATA 20,2D
00C1:  DATA 41,28
00C2:  DATA D0,22
00C3:  DATA 52,10
00C4:  DATA 20,10
00C5:  DATA 20,10
00C6:  DATA 4F,23
00C7:  DATA 46,10
00C8:  DATA 00,01
00C9:  DATA 0C,10
00CA:  DATA C6,24
00CB:  DATA 4E,10
00CC:  DATA C4,22
00CD:  DATA 20,2A
00CE:  DATA 45,29
00CF:  DATA 41,28
00D0:  DATA C9,20
00D1:  DATA 20,00
*
01F5:  MOVF   0B,W
01F6:  MOVWF  68
01F7:  BCF    0B.7
01F8:  BSF    03.5
01F9:  BSF    03.6
01FA:  BSF    0C.7
01FB:  BSF    0C.0
01FC:  NOP
01FD:  NOP
01FE:  BCF    03.5
01FF:  BCF    03.6
0200:  BTFSC  68.7
0201:  BSF    0B.7
0202:  BSF    03.6
0203:  MOVF   0C,W
0204:  ANDLW  7F
0205:  BTFSC  03.2
0206:  GOTO   249
0207:  BCF    03.6
0208:  MOVWF  68
0209:  BSF    03.6
020A:  MOVF   0D,W
020B:  BCF    03.6
020C:  MOVWF  69
020D:  BSF    03.6
020E:  MOVF   0F,W
020F:  BCF    03.6
0210:  MOVWF  6A
0211:  MOVF   68,W
0212:  MOVWF  7B
0213:  CALL   1C3
0214:  MOVF   69,W
0215:  BSF    03.6
0216:  MOVWF  0D
0217:  BCF    03.6
0218:  MOVF   6A,W
0219:  BSF    03.6
021A:  MOVWF  0F
021B:  BCF    03.6
021C:  MOVF   0B,W
021D:  MOVWF  6B
021E:  BCF    0B.7
021F:  BSF    03.5
0220:  BSF    03.6
0221:  BSF    0C.7
0222:  BSF    0C.0
0223:  NOP
0224:  NOP
0225:  BCF    03.5
0226:  BCF    03.6
0227:  BTFSC  6B.7
0228:  BSF    0B.7
0229:  BSF    03.6
022A:  RLF    0C,W
022B:  RLF    0E,W
022C:  ANDLW  7F
022D:  BTFSC  03.2
022E:  GOTO   249
022F:  BCF    03.6
0230:  MOVWF  68
0231:  BSF    03.6
0232:  MOVF   0D,W
0233:  BCF    03.6
0234:  MOVWF  69
0235:  BSF    03.6
0236:  MOVF   0F,W
0237:  BCF    03.6
0238:  MOVWF  6A
0239:  MOVF   68,W
023A:  MOVWF  7B
023B:  CALL   1C3
023C:  MOVF   69,W
023D:  BSF    03.6
023E:  MOVWF  0D
023F:  BCF    03.6
0240:  MOVF   6A,W
0241:  BSF    03.6
0242:  MOVWF  0F
0243:  INCF   0D,F
0244:  BTFSC  03.2
0245:  INCF   0F,F
0246:  BCF    03.6
0247:  GOTO   1F5
0248:  BSF    03.6
0249:  BCF    03.6
024A:  RETURN
*
02F2:  MOVF   7B,W
02F3:  BTFSC  03.2
02F4:  GOTO   371
02F5:  BSF    03.5
02F6:  MOVWF  24
02F7:  MOVF   20,W
02F8:  BTFSS  03.2
02F9:  GOTO   2FC
02FA:  BCF    03.5
02FB:  GOTO   371
02FC:  ADDWF  24,F
02FD:  BTFSC  03.0
02FE:  GOTO   30A
02FF:  MOVLW  7F
0300:  SUBWF  24,F
0301:  BTFSC  03.0
0302:  GOTO   305
0303:  BCF    03.5
0304:  GOTO   371
0305:  BTFSS  03.2
0306:  GOTO   309
0307:  BCF    03.5
0308:  GOTO   371
0309:  GOTO   310
030A:  MOVLW  81
030B:  ADDWF  24,F
030C:  BTFSS  03.0
030D:  GOTO   310
030E:  BCF    03.5
030F:  GOTO   371
0310:  MOVF   24,W
0311:  MOVWF  77
0312:  CLRF   78
0313:  CLRF   79
0314:  CLRF   7A
0315:  MOVF   7C,W
0316:  MOVWF  28
0317:  BSF    28.7
0318:  MOVF   7D,W
0319:  MOVWF  27
031A:  MOVF   7E,W
031B:  MOVWF  26
031C:  MOVLW  18
031D:  MOVWF  24
031E:  CLRF   25
031F:  BTFSS  26.0
0320:  GOTO   339
0321:  MOVF   23,W
0322:  ADDWF  7A,F
0323:  BTFSS  03.0
0324:  GOTO   32B
0325:  INCF   79,F
0326:  BTFSS  03.2
0327:  GOTO   32B
0328:  INCF   78,F
0329:  BTFSC  03.2
032A:  BSF    25.7
032B:  MOVF   22,W
032C:  ADDWF  79,F
032D:  BTFSS  03.0
032E:  GOTO   332
032F:  INCF   78,F
0330:  BTFSC  03.2
0331:  BSF    25.7
0332:  MOVF   21,W
0333:  MOVWF  7D
0334:  BSF    7D.7
0335:  MOVF   7D,W
0336:  ADDWF  78,F
0337:  BTFSC  03.0
0338:  BSF    25.7
0339:  RLF    25,F
033A:  RRF    78,F
033B:  RRF    79,F
033C:  RRF    7A,F
033D:  RRF    28,F
033E:  RRF    27,F
033F:  RRF    26,F
0340:  BCF    03.0
0341:  DECFSZ 24,F
0342:  GOTO   31E
0343:  MOVLW  01
0344:  ADDWF  77,F
0345:  BTFSS  03.0
0346:  GOTO   349
0347:  BCF    03.5
0348:  GOTO   371
0349:  BTFSC  78.7
034A:  GOTO   353
034B:  RLF    28,F
034C:  RLF    7A,F
034D:  RLF    79,F
034E:  RLF    78,F
034F:  DECFSZ 77,F
0350:  GOTO   353
0351:  BCF    03.5
0352:  GOTO   371
0353:  BTFSS  28.7
0354:  GOTO   366
0355:  INCF   7A,F
0356:  BTFSS  03.2
0357:  GOTO   366
0358:  INCF   79,F
0359:  BTFSS  03.2
035A:  GOTO   366
035B:  INCF   78,F
035C:  BTFSS  03.2
035D:  GOTO   366
035E:  RRF    78,F
035F:  RRF    79,F
0360:  RRF    7A,F
0361:  INCF   77,F
0362:  BTFSS  03.2
0363:  GOTO   366
0364:  BCF    03.5
0365:  GOTO   371
0366:  MOVF   7C,W
0367:  MOVWF  25
0368:  MOVF   21,W
0369:  XORWF  25,F
036A:  BTFSS  25.7
036B:  GOTO   36E
036C:  BSF    78.7
036D:  GOTO   376
036E:  BCF    78.7
036F:  GOTO   376
0370:  BCF    03.5
0371:  CLRF   77
0372:  CLRF   78
0373:  CLRF   79
0374:  CLRF   7A
0375:  BSF    03.5
0376:  BCF    03.5
0377:  RETURN
*
0385:  MOVLW  8E
0386:  MOVWF  77
0387:  MOVF   69,W
0388:  MOVWF  78
0389:  MOVF   68,W
038A:  MOVWF  79
038B:  CLRF   7A
038C:  MOVF   78,F
038D:  BTFSS  03.2
038E:  GOTO   399
038F:  MOVF   79,W
0390:  MOVWF  78
0391:  CLRF   79
0392:  MOVLW  08
0393:  SUBWF  77,F
0394:  MOVF   78,F
0395:  BTFSS  03.2
0396:  GOTO   399
0397:  CLRF   77
0398:  GOTO   3A1
0399:  BCF    03.0
039A:  BTFSC  78.7
039B:  GOTO   3A0
039C:  RLF    79,F
039D:  RLF    78,F
039E:  DECF   77,F
039F:  GOTO   399
03A0:  BCF    78.7
*
03C7:  MOVF   6C,W
03C8:  BTFSC  03.2
03C9:  GOTO   4A1
03CA:  BSF    03.5
03CB:  MOVWF  24
03CC:  MOVF   70,W
03CD:  BTFSS  03.2
03CE:  GOTO   3D1
03CF:  BCF    03.5
03D0:  GOTO   4A1
03D1:  SUBWF  24,F
03D2:  BTFSS  03.0
03D3:  GOTO   3DB
03D4:  MOVLW  7F
03D5:  ADDWF  24,F
03D6:  BTFSS  03.0
03D7:  GOTO   3DA
03D8:  BCF    03.5
03D9:  GOTO   4A1
03DA:  GOTO   3E5
03DB:  MOVLW  81
03DC:  SUBWF  24,F
03DD:  BTFSC  03.0
03DE:  GOTO   3E1
03DF:  BCF    03.5
03E0:  GOTO   4A1
03E1:  BTFSS  03.2
03E2:  GOTO   3E5
03E3:  BCF    03.5
03E4:  GOTO   4A1
03E5:  MOVF   24,W
03E6:  MOVWF  77
03E7:  CLRF   78
03E8:  CLRF   79
03E9:  CLRF   7A
03EA:  CLRF   23
03EB:  BCF    03.5
03EC:  MOVF   6D,W
03ED:  BSF    03.5
03EE:  MOVWF  22
03EF:  BSF    22.7
03F0:  BCF    03.5
03F1:  MOVF   6E,W
03F2:  BSF    03.5
03F3:  MOVWF  21
03F4:  BCF    03.5
03F5:  MOVF   6F,W
03F6:  BSF    03.5
03F7:  MOVWF  20
03F8:  MOVLW  19
03F9:  MOVWF  24
03FA:  MOVF   73,W
03FB:  SUBWF  20,F
03FC:  BTFSC  03.0
03FD:  GOTO   40E
03FE:  MOVLW  01
03FF:  SUBWF  21,F
0400:  BTFSC  03.0
0401:  GOTO   40E
0402:  SUBWF  22,F
0403:  BTFSC  03.0
0404:  GOTO   40E
0405:  SUBWF  23,F
0406:  BTFSC  03.0
0407:  GOTO   40E
0408:  INCF   23,F
0409:  INCF   22,F
040A:  INCF   21,F
040B:  MOVF   73,W
040C:  ADDWF  20,F
040D:  GOTO   440
040E:  MOVF   72,W
040F:  SUBWF  21,F
0410:  BTFSC  03.0
0411:  GOTO   429
0412:  MOVLW  01
0413:  SUBWF  22,F
0414:  BTFSC  03.0
0415:  GOTO   429
0416:  SUBWF  23,F
0417:  BTFSC  03.0
0418:  GOTO   429
0419:  INCF   23,F
041A:  INCF   22,F
041B:  MOVF   72,W
041C:  ADDWF  21,F
041D:  MOVF   73,W
041E:  ADDWF  20,F
041F:  BTFSS  03.0
0420:  GOTO   440
0421:  INCF   21,F
0422:  BTFSS  03.2
0423:  GOTO   440
0424:  INCF   22,F
0425:  BTFSS  03.2
0426:  GOTO   440
0427:  INCF   23,F
0428:  GOTO   440
0429:  MOVF   71,W
042A:  IORLW  80
042B:  SUBWF  22,F
042C:  BTFSC  03.0
042D:  GOTO   43F
042E:  MOVLW  01
042F:  SUBWF  23,F
0430:  BTFSC  03.0
0431:  GOTO   43F
0432:  INCF   23,F
0433:  MOVF   71,W
0434:  IORLW  80
0435:  ADDWF  22,F
0436:  MOVF   72,W
0437:  ADDWF  21,F
0438:  BTFSS  03.0
0439:  GOTO   41D
043A:  INCF   22,F
043B:  BTFSS  03.2
043C:  GOTO   41D
043D:  INCF   23,F
043E:  GOTO   41D
043F:  BSF    7A.0
0440:  DECFSZ 24,F
0441:  GOTO   443
0442:  GOTO   44E
0443:  BCF    03.0
0444:  RLF    20,F
0445:  RLF    21,F
0446:  RLF    22,F
0447:  RLF    23,F
0448:  BCF    03.0
0449:  RLF    7A,F
044A:  RLF    79,F
044B:  RLF    78,F
044C:  RLF    25,F
044D:  GOTO   3FA
044E:  BTFSS  25.0
044F:  GOTO   456
0450:  BCF    03.0
0451:  RRF    78,F
0452:  RRF    79,F
0453:  RRF    7A,F
0454:  RRF    25,F
0455:  GOTO   45A
0456:  DECFSZ 77,F
0457:  GOTO   45A
0458:  BCF    03.5
0459:  GOTO   4A1
045A:  BTFSC  25.7
045B:  GOTO   483
045C:  BCF    03.0
045D:  RLF    20,F
045E:  RLF    21,F
045F:  RLF    22,F
0460:  RLF    23,F
0461:  MOVF   73,W
0462:  SUBWF  20,F
0463:  BTFSC  03.0
0464:  GOTO   46F
0465:  MOVLW  01
0466:  SUBWF  21,F
0467:  BTFSC  03.0
0468:  GOTO   46F
0469:  SUBWF  22,F
046A:  BTFSC  03.0
046B:  GOTO   46F
046C:  SUBWF  23,F
046D:  BTFSS  03.0
046E:  GOTO   494
046F:  MOVF   72,W
0470:  SUBWF  21,F
0471:  BTFSC  03.0
0472:  GOTO   47A
0473:  MOVLW  01
0474:  SUBWF  22,F
0475:  BTFSC  03.0
0476:  GOTO   47A
0477:  SUBWF  23,F
0478:  BTFSS  03.0
0479:  GOTO   494
047A:  MOVF   71,W
047B:  IORLW  80
047C:  SUBWF  22,F
047D:  BTFSC  03.0
047E:  GOTO   483
047F:  MOVLW  01
0480:  SUBWF  23,F
0481:  BTFSS  03.0
0482:  GOTO   494
0483:  INCF   7A,F
0484:  BTFSS  03.2
0485:  GOTO   494
0486:  INCF   79,F
0487:  BTFSS  03.2
0488:  GOTO   494
0489:  INCF   78,F
048A:  BTFSS  03.2
048B:  GOTO   494
048C:  INCF   77,F
048D:  BTFSS  03.2
048E:  GOTO   491
048F:  BCF    03.5
0490:  GOTO   4A1
0491:  RRF    78,F
0492:  RRF    79,F
0493:  RRF    7A,F
0494:  BCF    03.5
0495:  MOVF   6D,W
0496:  BSF    03.5
0497:  MOVWF  24
0498:  MOVF   71,W
0499:  XORWF  24,F
049A:  BTFSS  24.7
049B:  GOTO   49E
049C:  BSF    78.7
049D:  GOTO   4A6
049E:  BCF    78.7
049F:  GOTO   4A6
04A0:  BCF    03.5
04A1:  CLRF   77
04A2:  CLRF   78
04A3:  CLRF   79
04A4:  CLRF   7A
04A5:  BSF    03.5
*
04B0:  MOVF   0B,W
04B1:  MOVWF  6B
04B2:  BCF    0B.7
04B3:  BSF    03.5
04B4:  BSF    03.6
04B5:  BSF    0C.7
04B6:  BSF    0C.0
04B7:  NOP
04B8:  NOP
04B9:  BCF    03.5
04BA:  BCF    03.6
04BB:  BTFSC  6B.7
04BC:  BSF    0B.7
04BD:  BTFSC  03.0
04BE:  GOTO   4E7
04BF:  BSF    03.6
04C0:  MOVF   0C,W
04C1:  ANDLW  7F
04C2:  BCF    03.6
04C3:  MOVWF  6B
04C4:  BSF    03.6
04C5:  MOVF   0D,W
04C6:  BCF    03.6
04C7:  MOVWF  6C
04C8:  BSF    03.6
04C9:  MOVF   0F,W
04CA:  BCF    03.6
04CB:  MOVWF  6D
04CC:  MOVF   6B,W
04CD:  MOVWF  7B
04CE:  CALL   1C3
04CF:  MOVF   6C,W
04D0:  BSF    03.6
04D1:  MOVWF  0D
04D2:  BCF    03.6
04D3:  MOVF   6D,W
04D4:  BSF    03.6
04D5:  MOVWF  0F
04D6:  BCF    03.6
04D7:  MOVF   0B,W
04D8:  MOVWF  6E
04D9:  BCF    0B.7
04DA:  BSF    03.5
04DB:  BSF    03.6
04DC:  BSF    0C.7
04DD:  BSF    0C.0
04DE:  NOP
04DF:  NOP
04E0:  BCF    03.5
04E1:  BCF    03.6
04E2:  BTFSC  6E.7
04E3:  BSF    0B.7
04E4:  DECFSZ 6A,F
04E5:  GOTO   4E7
04E6:  GOTO   506
04E7:  BSF    03.6
04E8:  RLF    0C,W
04E9:  RLF    0E,W
04EA:  ANDLW  7F
04EB:  BCF    03.6
04EC:  MOVWF  6B
04ED:  BSF    03.6
04EE:  MOVF   0D,W
04EF:  BCF    03.6
04F0:  MOVWF  6C
04F1:  BSF    03.6
04F2:  MOVF   0F,W
04F3:  BCF    03.6
04F4:  MOVWF  6D
04F5:  MOVF   6B,W
04F6:  MOVWF  7B
04F7:  CALL   1C3
04F8:  MOVF   6C,W
04F9:  BSF    03.6
04FA:  MOVWF  0D
04FB:  BCF    03.6
04FC:  MOVF   6D,W
04FD:  BSF    03.6
04FE:  MOVWF  0F
04FF:  INCF   0D,F
0500:  BTFSC  03.2
0501:  INCF   0F,F
0502:  BCF    03.0
0503:  BCF    03.6
0504:  DECFSZ 6A,F
0505:  GOTO   4B0
0506:  RETURN
0507:  BTFSC  03.1
0508:  GOTO   50C
0509:  MOVLW  A4
050A:  MOVWF  04
050B:  BCF    03.7
050C:  CLRF   77
050D:  CLRF   78
050E:  CLRF   79
050F:  CLRF   7A
0510:  BSF    03.5
0511:  CLRF   24
0512:  CLRF   25
0513:  CLRF   26
0514:  CLRF   27
0515:  MOVF   23,W
0516:  IORWF  22,W
0517:  IORWF  21,W
0518:  IORWF  20,W
0519:  BTFSC  03.2
051A:  GOTO   54B
051B:  MOVLW  20
051C:  MOVWF  28
051D:  BCF    03.0
051E:  RLF    7B,F
051F:  RLF    7C,F
0520:  RLF    7D,F
0521:  RLF    7E,F
0522:  RLF    24,F
0523:  RLF    25,F
0524:  RLF    26,F
0525:  RLF    27,F
0526:  MOVF   23,W
0527:  SUBWF  27,W
0528:  BTFSS  03.2
0529:  GOTO   534
052A:  MOVF   22,W
052B:  SUBWF  26,W
052C:  BTFSS  03.2
052D:  GOTO   534
052E:  MOVF   21,W
052F:  SUBWF  25,W
0530:  BTFSS  03.2
0531:  GOTO   534
0532:  MOVF   20,W
0533:  SUBWF  24,W
0534:  BTFSS  03.0
0535:  GOTO   545
0536:  MOVF   20,W
0537:  SUBWF  24,F
0538:  MOVF   21,W
0539:  BTFSS  03.0
053A:  INCFSZ 21,W
053B:  SUBWF  25,F
053C:  MOVF   22,W
053D:  BTFSS  03.0
053E:  INCFSZ 22,W
053F:  SUBWF  26,F
0540:  MOVF   23,W
0541:  BTFSS  03.0
0542:  INCFSZ 23,W
0543:  SUBWF  27,F
0544:  BSF    03.0
0545:  RLF    77,F
0546:  RLF    78,F
0547:  RLF    79,F
0548:  RLF    7A,F
0549:  DECFSZ 28,F
054A:  GOTO   51D
054B:  MOVF   24,W
054C:  MOVWF  00
054D:  INCF   04,F
054E:  MOVF   25,W
054F:  MOVWF  00
0550:  INCF   04,F
0551:  MOVF   26,W
0552:  MOVWF  00
0553:  INCF   04,F
0554:  MOVF   27,W
0555:  MOVWF  00
0556:  BCF    03.5
0557:  RETURN
0558:  MOVF   04,W
0559:  MOVWF  6F
055A:  MOVF   6E,W
055B:  MOVWF  71
055C:  BTFSC  03.2
055D:  GOTO   579
055E:  MOVF   6D,W
055F:  MOVWF  7E
0560:  MOVF   6C,W
0561:  MOVWF  7D
0562:  MOVF   6B,W
0563:  MOVWF  7C
0564:  MOVF   6A,W
0565:  MOVWF  7B
0566:  BSF    03.5
0567:  CLRF   23
0568:  CLRF   22
0569:  MOVLW  20
056A:  MOVWF  21
056B:  MOVLW  82
056C:  MOVWF  20
056D:  BCF    03.5
056E:  CALL   2F2
056F:  MOVF   7A,W
0570:  MOVWF  6D
0571:  MOVF   79,W
0572:  MOVWF  6C
0573:  MOVF   78,W
0574:  MOVWF  6B
0575:  MOVF   77,W
0576:  MOVWF  6A
0577:  DECFSZ 71,F
0578:  GOTO   55E
0579:  MOVF   6D,W
057A:  MOVWF  7E
057B:  MOVF   6C,W
057C:  MOVWF  7D
057D:  MOVF   6B,W
057E:  MOVWF  7C
057F:  MOVF   6A,W
0580:  MOVWF  7B
0581:  MOVF   7B,W
0582:  SUBLW  B6
0583:  MOVWF  7B
0584:  CLRF   7A
0585:  MOVF   7C,W
0586:  BSF    03.5
0587:  MOVWF  20
0588:  BSF    7C.7
0589:  BCF    03.0
058A:  RRF    7C,F
058B:  RRF    7D,F
058C:  RRF    7E,F
058D:  RRF    7A,F
058E:  RRF    79,F
058F:  RRF    78,F
0590:  RRF    77,F
0591:  DECFSZ 7B,F
0592:  GOTO   589
0593:  BTFSS  20.7
0594:  GOTO   5A0
0595:  COMF   77,F
0596:  COMF   78,F
0597:  COMF   79,F
0598:  COMF   7A,F
0599:  INCF   77,F
059A:  BTFSC  03.2
059B:  INCF   78,F
059C:  BTFSC  03.2
059D:  INCF   79,F
059E:  BTFSC  03.2
059F:  INCF   7A,F
05A0:  MOVF   7A,W
05A1:  BCF    03.5
05A2:  MOVWF  6D
05A3:  MOVF   79,W
05A4:  MOVWF  6C
05A5:  MOVF   78,W
05A6:  MOVWF  6B
05A7:  MOVF   77,W
05A8:  MOVWF  6A
05A9:  BTFSS  6D.7
05AA:  GOTO   5B8
05AB:  DECF   6F,F
05AC:  BSF    6F.5
05AD:  COMF   6A,F
05AE:  COMF   6B,F
05AF:  COMF   6C,F
05B0:  COMF   6D,F
05B1:  INCF   6A,F
05B2:  BTFSC  03.2
05B3:  INCF   6B,F
05B4:  BTFSC  03.2
05B5:  INCF   6C,F
05B6:  BTFSC  03.2
05B7:  INCF   6D,F
05B8:  MOVLW  3B
05B9:  MOVWF  76
05BA:  MOVLW  9A
05BB:  MOVWF  75
05BC:  MOVLW  CA
05BD:  MOVWF  74
05BE:  CLRF   73
05BF:  MOVLW  0A
05C0:  MOVWF  71
05C1:  MOVF   6E,W
05C2:  BTFSC  03.2
05C3:  INCF   6F,F
05C4:  BSF    03.1
05C5:  MOVLW  6A
05C6:  MOVWF  04
05C7:  BCF    03.7
05C8:  MOVF   6D,W
05C9:  MOVWF  7E
05CA:  MOVF   6C,W
05CB:  MOVWF  7D
05CC:  MOVF   6B,W
05CD:  MOVWF  7C
05CE:  MOVF   6A,W
05CF:  MOVWF  7B
05D0:  MOVF   76,W
05D1:  BSF    03.5
05D2:  MOVWF  23
05D3:  MOVF   75,W
05D4:  MOVWF  22
05D5:  MOVF   74,W
05D6:  MOVWF  21
05D7:  MOVF   73,W
05D8:  MOVWF  20
05D9:  BCF    03.5
05DA:  CALL   507
05DB:  MOVF   78,W
05DC:  MOVF   77,F
05DD:  BTFSS  03.2
05DE:  GOTO   5F2
05DF:  INCF   6E,W
05E0:  SUBWF  71,W
05E1:  BTFSC  03.2
05E2:  GOTO   5F2
05E3:  MOVF   6F,W
05E4:  BTFSC  03.2
05E5:  GOTO   5F4
05E6:  ANDLW  0F
05E7:  SUBWF  71,W
05E8:  BTFSC  03.2
05E9:  GOTO   5EC
05EA:  BTFSC  03.0
05EB:  GOTO   624
05EC:  BTFSC  6F.7
05ED:  GOTO   624
05EE:  BTFSC  6F.6
05EF:  GOTO   5F4
05F0:  MOVLW  20
05F1:  GOTO   620
05F2:  MOVLW  20
05F3:  ANDWF  6F,F
05F4:  BTFSS  6F.5
05F5:  GOTO   602
05F6:  BCF    6F.5
05F7:  MOVF   6E,W
05F8:  BTFSS  03.2
05F9:  DECF   6F,F
05FA:  MOVF   77,W
05FB:  MOVWF  6F
05FC:  MOVLW  2D
05FD:  MOVWF  7B
05FE:  CALL   1C3
05FF:  MOVF   6F,W
0600:  MOVWF  77
0601:  CLRF   6F
0602:  MOVF   6E,W
0603:  SUBWF  71,W
0604:  BTFSS  03.2
0605:  GOTO   610
0606:  MOVF   77,W
0607:  MOVWF  6F
0608:  MOVLW  2E
0609:  MOVWF  7B
060A:  CALL   1C3
060B:  MOVF   6F,W
060C:  MOVWF  77
060D:  MOVLW  20
060E:  ANDWF  6F,F
060F:  MOVLW  00
0610:  MOVLW  30
0611:  BTFSS  6F.5
0612:  GOTO   620
0613:  BCF    6F.5
0614:  MOVF   6E,W
0615:  BTFSS  03.2
0616:  DECF   6F,F
0617:  MOVF   77,W
0618:  MOVWF  6F
0619:  MOVLW  2D
061A:  MOVWF  7B
061B:  CALL   1C3
061C:  MOVF   6F,W
061D:  MOVWF  77
061E:  CLRF   6F
061F:  MOVLW  30
0620:  ADDWF  77,F
0621:  MOVF   77,W
0622:  MOVWF  7B
0623:  CALL   1C3
0624:  BCF    03.1
0625:  MOVF   76,W
0626:  MOVWF  7E
0627:  MOVF   75,W
0628:  MOVWF  7D
0629:  MOVF   74,W
062A:  MOVWF  7C
062B:  MOVF   73,W
062C:  MOVWF  7B
062D:  BSF    03.5
062E:  CLRF   23
062F:  CLRF   22
0630:  CLRF   21
0631:  MOVLW  0A
0632:  MOVWF  20
0633:  BCF    03.5
0634:  CALL   507
0635:  MOVF   7A,W
0636:  MOVWF  76
0637:  MOVF   79,W
0638:  MOVWF  75
0639:  MOVF   78,W
063A:  MOVWF  74
063B:  MOVF   77,W
063C:  MOVWF  73
063D:  DECFSZ 71,F
063E:  GOTO   5C4
063F:  RETURN
*
066B:  MOVF   69,W
066C:  MOVWF  70
066D:  MOVF   6D,W
066E:  XORWF  70,F
066F:  BTFSS  70.7
0670:  GOTO   676
0671:  BCF    03.2
0672:  BCF    03.0
0673:  BTFSC  69.7
0674:  BSF    03.0
0675:  GOTO   6A9
0676:  MOVF   69,W
0677:  MOVWF  70
0678:  MOVF   6C,W
0679:  MOVWF  71
067A:  MOVF   68,W
067B:  SUBWF  71,F
067C:  BTFSC  03.2
067D:  GOTO   684
067E:  BTFSS  70.7
067F:  GOTO   6A9
0680:  MOVF   03,W
0681:  XORLW  01
0682:  MOVWF  03
0683:  GOTO   6A9
0684:  MOVF   6D,W
0685:  MOVWF  71
0686:  MOVF   69,W
0687:  SUBWF  71,F
0688:  BTFSC  03.2
0689:  GOTO   690
068A:  BTFSS  70.7
068B:  GOTO   6A9
068C:  MOVF   03,W
068D:  XORLW  01
068E:  MOVWF  03
068F:  GOTO   6A9
0690:  MOVF   6E,W
0691:  MOVWF  71
0692:  MOVF   6A,W
0693:  SUBWF  71,F
0694:  BTFSC  03.2
0695:  GOTO   69C
0696:  BTFSS  70.7
0697:  GOTO   6A9
0698:  MOVF   03,W
0699:  XORLW  01
069A:  MOVWF  03
069B:  GOTO   6A9
069C:  MOVF   6F,W
069D:  MOVWF  71
069E:  MOVF   6B,W
069F:  SUBWF  71,F
06A0:  BTFSC  03.2
06A1:  GOTO   6A8
06A2:  BTFSS  70.7
06A3:  GOTO   6A9
06A4:  MOVF   03,W
06A5:  XORLW  01
06A6:  MOVWF  03
06A7:  GOTO   6A9
06A8:  BCF    03.0
*
0753:  MOVF   71,W
0754:  CLRF   78
0755:  SUBWF  70,W
0756:  BTFSC  03.0
0757:  GOTO   75B
0758:  MOVF   70,W
0759:  MOVWF  77
075A:  GOTO   767
075B:  CLRF   77
075C:  MOVLW  08
075D:  MOVWF  72
075E:  RLF    70,F
075F:  RLF    77,F
0760:  MOVF   71,W
0761:  SUBWF  77,W
0762:  BTFSC  03.0
0763:  MOVWF  77
0764:  RLF    78,F
0765:  DECFSZ 72,F
0766:  GOTO   75E
0767:  RETURN
0768:  MOVLW  20
0769:  BTFSS  6B.4
076A:  MOVLW  30
076B:  MOVWF  6C
076C:  MOVF   6A,W
076D:  MOVWF  77
076E:  BTFSS  6A.7
076F:  GOTO   778
0770:  COMF   77,F
0771:  INCF   77,F
0772:  MOVF   77,W
0773:  MOVWF  6A
0774:  MOVLW  2D
0775:  MOVWF  6C
0776:  BSF    6B.7
0777:  BSF    6B.0
0778:  MOVF   6A,W
0779:  MOVWF  70
077A:  MOVLW  64
077B:  MOVWF  71
077C:  CALL   753
077D:  MOVF   77,W
077E:  MOVWF  6A
077F:  MOVLW  30
0780:  ADDWF  78,W
0781:  MOVWF  6D
0782:  MOVF   6A,W
0783:  MOVWF  70
0784:  MOVLW  0A
0785:  MOVWF  71
0786:  CALL   753
0787:  MOVLW  30
0788:  ADDWF  77,W
0789:  MOVWF  6F
078A:  MOVLW  30
078B:  ADDWF  78,W
078C:  MOVWF  6E
078D:  MOVF   6C,W
078E:  MOVWF  77
078F:  MOVLW  30
0790:  SUBWF  6D,W
0791:  BTFSC  03.2
0792:  GOTO   797
0793:  BSF    6B.1
0794:  BTFSC  6B.7
0795:  BSF    6B.2
0796:  GOTO   7AB
0797:  BTFSC  6B.2
0798:  GOTO   7AB
0799:  MOVF   6C,W
079A:  MOVWF  6D
079B:  BTFSC  6B.1
079C:  GOTO   7A2
079D:  MOVLW  30
079E:  SUBWF  6E,W
079F:  BTFSC  03.2
07A0:  GOTO   7A5
07A1:  BSF    6B.0
07A2:  BTFSC  6B.7
07A3:  BSF    6B.1
07A4:  GOTO   7AB
07A5:  BTFSS  03.2
07A6:  BSF    6B.0
07A7:  BTFSS  03.2
07A8:  GOTO   7AB
07A9:  MOVF   6D,W
07AA:  MOVWF  6E
07AB:  BTFSC  6B.2
07AC:  GOTO   7B2
07AD:  BTFSC  6B.1
07AE:  GOTO   7B5
07AF:  BTFSC  6B.0
07B0:  GOTO   7B8
07B1:  GOTO   7BB
07B2:  MOVF   6C,W
07B3:  MOVWF  7B
07B4:  CALL   1C3
07B5:  MOVF   6D,W
07B6:  MOVWF  7B
07B7:  CALL   1C3
07B8:  MOVF   6E,W
07B9:  MOVWF  7B
07BA:  CALL   1C3
07BB:  MOVF   6F,W
07BC:  MOVWF  7B
07BD:  CALL   1C3
07BE:  RETURN
....................  
.................... #list 
....................  
.................... #device ADC=10 
.................... #fuses HS,NOWDT,PROTECT,NOLVP 
.................... #use delay(clock=4M) 
*
00D2:  MOVLW  7C
00D3:  MOVWF  04
00D4:  BCF    03.7
00D5:  MOVF   00,W
00D6:  BTFSC  03.2
00D7:  GOTO   0E6
00D8:  MOVLW  01
00D9:  MOVWF  78
00DA:  CLRF   77
00DB:  DECFSZ 77,F
00DC:  GOTO   0DB
00DD:  DECFSZ 78,F
00DE:  GOTO   0DA
00DF:  MOVLW  4A
00E0:  MOVWF  77
00E1:  DECFSZ 77,F
00E2:  GOTO   0E1
00E3:  GOTO   0E4
00E4:  DECFSZ 00,F
00E5:  GOTO   0D8
00E6:  RETURN
.................... #define lcd_data_port getenv("sfr:portb") 
.................... #define LCD_RS_PIN PIN_B1 
.................... #define LCD_RW_PIN PIN_B2 
.................... #define LCD_ENABLE_PIN PIN_B3 
.................... #include <lcd.c> 
.................... /////////////////////////////////////////////////////////////////////////////// 
.................... ////                             LCD.C                                     //// 
.................... ////                 Driver for common LCD modules                         //// 
.................... ////                                                                       //// 
.................... ////  lcd_init()   Must be called before any other function.               //// 
.................... ////                                                                       //// 
.................... ////  lcd_putc(c)  Will display c on the next position of the LCD.         //// 
.................... ////                 \a  Set cursor position to upper left                 //// 
.................... ////                 \f  Clear display, set cursor to upper left           //// 
.................... ////                 \n  Go to start of second line                        //// 
.................... ////                 \b  Move back one position                            //// 
.................... ////              If LCD_EXTENDED_NEWLINE is defined, the \n character     //// 
.................... ////              will erase all remanining characters on the current      //// 
.................... ////              line, and move the cursor to the beginning of the next   //// 
.................... ////              line.                                                    //// 
.................... ////              If LCD_EXTENDED_NEWLINE is defined, the \r character     //// 
.................... ////              will move the cursor to the start of the current         //// 
.................... ////              line.                                                    //// 
.................... ////                                                                       //// 
.................... ////  lcd_gotoxy(x,y) Set write position on LCD (upper left is 1,1)        //// 
.................... ////                                                                       //// 
.................... ////  lcd_getc(x,y)   Returns character at position x,y on LCD             //// 
.................... ////                                                                       //// 
.................... ////  lcd_cursor_on(int1 on)   Turn the cursor on (on=TRUE) or off         //// 
.................... ////              (on=FALSE).                                              //// 
.................... ////                                                                       //// 
.................... ////  lcd_set_cgram_char(w, *p)   Write a custom character to the CGRAM.   //// 
.................... ////                                                                       //// 
.................... ////                                                                       //// 
.................... ////  CONFIGURATION                                                        //// 
.................... ////  The LCD can be configured in one of two ways: a.) port access or     //// 
.................... ////  b.) pin access.  Port access requires the entire 7 bit interface     //// 
.................... ////  connected to one GPIO port, and the data bits (D4:D7 of the LCD)     //// 
.................... ////  connected to sequential pins on the GPIO.  Pin access                //// 
.................... ////  has no requirements, all 7 bits of the control interface can         //// 
.................... ////  can be connected to any GPIO using several ports.                    //// 
.................... ////                                                                       //// 
.................... ////  To use port access, #define LCD_DATA_PORT to the SFR location of     //// 
.................... ////  of the GPIO port that holds the interface, -AND- edit LCD_PIN_MAP    //// 
.................... ////  of this file to configure the pin order.  If you are using a         //// 
.................... ////  baseline PIC (PCB), then LCD_OUTPUT_MAP and LCD_INPUT_MAP also must  //// 
.................... ////  be defined.                                                          //// 
.................... ////                                                                       //// 
.................... ////  Example of port access:                                              //// 
.................... ////     #define LCD_DATA_PORT getenv("SFR:PORTD")                         //// 
.................... ////                                                                       //// 
.................... ////  To use pin access, the following pins must be defined:               //// 
.................... ////     LCD_ENABLE_PIN                                                    //// 
.................... ////     LCD_RS_PIN                                                        //// 
.................... ////     LCD_RW_PIN                                                        //// 
.................... ////     LCD_DATA4                                                         //// 
.................... ////     LCD_DATA5                                                         //// 
.................... ////     LCD_DATA6                                                         //// 
.................... ////     LCD_DATA7                                                         //// 
.................... ////                                                                       //// 
.................... ////  Example of pin access:                                               //// 
.................... ////     #define LCD_ENABLE_PIN  PIN_E0                                    //// 
.................... ////     #define LCD_RS_PIN      PIN_E1                                    //// 
.................... ////     #define LCD_RW_PIN      PIN_E2                                    //// 
.................... ////     #define LCD_DATA4       PIN_D4                                    //// 
.................... ////     #define LCD_DATA5       PIN_D5                                    //// 
.................... ////     #define LCD_DATA6       PIN_D6                                    //// 
.................... ////     #define LCD_DATA7       PIN_D7                                    //// 
.................... ////                                                                       //// 
.................... /////////////////////////////////////////////////////////////////////////////// 
.................... ////        (C) Copyright 1996,2010 Custom Computer Services           //// 
.................... //// This source code may only be used by licensed users of the CCS C  //// 
.................... //// compiler.  This source code may only be distributed to other      //// 
.................... //// licensed users of the CCS C compiler.  No other use, reproduction //// 
.................... //// or distribution is permitted without written permission.          //// 
.................... //// Derivative programs created using this software in object code    //// 
.................... //// form are not restricted in any way.                               //// 
.................... /////////////////////////////////////////////////////////////////////////// 
....................  
.................... #ifndef __LCD_C__ 
.................... #define __LCD_C__ 
....................  
.................... // define the pinout. 
.................... // only required if port access is being used. 
.................... typedef struct   
.................... {                            // This structure is overlayed 
....................    int1 enable;           // on to an I/O port to gain 
....................    int1 rs;               // access to the LCD pins. 
....................    int1 rw;               // The bits are allocated from 
....................    int1 unused;           // low order up.  ENABLE will 
....................    unsigned int     data : 4;         // be LSB pin of that port. 
....................   #if defined(__PCD__)       // The port used will be LCD_DATA_PORT. 
....................    unsigned int    reserved: 8; 
....................   #endif 
.................... } LCD_PIN_MAP; 
....................  
.................... // this is to improve compatability with previous LCD drivers that accepted 
.................... // a define labeled 'use_portb_lcd' that configured the LCD onto port B. 
.................... #if ((defined(use_portb_lcd)) && (use_portb_lcd==TRUE)) 
....................  #define LCD_DATA_PORT getenv("SFR:PORTB") 
.................... #endif 
....................  
.................... #if defined(__PCB__) 
....................    // these definitions only need to be modified for baseline PICs. 
....................    // all other PICs use LCD_PIN_MAP or individual LCD_xxx pin definitions. 
.................... /*                                    EN, RS,   RW,   UNUSED,  DATA  */ 
....................  const LCD_PIN_MAP LCD_OUTPUT_MAP =  {0,  0,    0,    0,       0}; 
....................  const LCD_PIN_MAP LCD_INPUT_MAP =   {0,  0,    0,    0,       0xF}; 
.................... #endif 
....................  
.................... ////////////////////// END CONFIGURATION /////////////////////////////////// 
....................  
.................... #ifndef LCD_ENABLE_PIN 
....................    #define lcd_output_enable(x) lcdlat.enable=x 
....................    #define lcd_enable_tris()   lcdtris.enable=0 
.................... #else 
....................    #define lcd_output_enable(x) output_bit(LCD_ENABLE_PIN, x) 
....................    #define lcd_enable_tris()  output_drive(LCD_ENABLE_PIN) 
.................... #endif 
....................  
.................... #ifndef LCD_RS_PIN 
....................    #define lcd_output_rs(x) lcdlat.rs=x 
....................    #define lcd_rs_tris()   lcdtris.rs=0 
.................... #else 
....................    #define lcd_output_rs(x) output_bit(LCD_RS_PIN, x) 
....................    #define lcd_rs_tris()  output_drive(LCD_RS_PIN) 
.................... #endif 
....................  
.................... #ifndef LCD_RW_PIN 
....................    #define lcd_output_rw(x) lcdlat.rw=x 
....................    #define lcd_rw_tris()   lcdtris.rw=0 
.................... #else 
....................    #define lcd_output_rw(x) output_bit(LCD_RW_PIN, x) 
....................    #define lcd_rw_tris()  output_drive(LCD_RW_PIN) 
.................... #endif 
....................  
.................... // original version of this library incorrectly labeled LCD_DATA0 as LCD_DATA4, 
.................... // LCD_DATA1 as LCD_DATA5, and so on.  this block of code makes the driver 
.................... // compatible with any code written for the original library 
.................... #if (defined(LCD_DATA0) && defined(LCD_DATA1) && defined(LCD_DATA2) && defined(LCD_DATA3) && !defined(LCD_DATA4) && !defined(LCD_DATA5) && !defined(LCD_DATA6) && !defined(LCD_DATA7)) 
....................    #define  LCD_DATA4    LCD_DATA0 
....................    #define  LCD_DATA5    LCD_DATA1 
....................    #define  LCD_DATA6    LCD_DATA2 
....................    #define  LCD_DATA7    LCD_DATA3 
.................... #endif 
....................  
.................... #ifndef LCD_DATA4 
.................... #ifndef LCD_DATA_PORT 
....................    #if defined(__PCB__) 
....................       #define LCD_DATA_PORT      0x06     //portb 
....................       #define set_tris_lcd(x)   set_tris_b(x) 
....................    #else 
....................      #if defined(PIN_D0) 
....................       #define LCD_DATA_PORT      getenv("SFR:PORTD")     //portd 
....................      #else 
....................       #define LCD_DATA_PORT      getenv("SFR:PORTB")     //portb 
....................      #endif 
....................    #endif    
.................... #endif 
....................  
.................... #if defined(__PCB__) 
....................    LCD_PIN_MAP lcd, lcdlat; 
....................    #byte lcd = LCD_DATA_PORT 
....................    #byte lcdlat = LCD_DATA_PORT 
.................... #elif defined(__PCM__) 
....................    LCD_PIN_MAP lcd, lcdlat, lcdtris; 
....................    #byte lcd = LCD_DATA_PORT 
....................    #byte lcdlat = LCD_DATA_PORT 
....................    #byte lcdtris = LCD_DATA_PORT+0x80 
.................... #elif defined(__PCH__) 
....................    LCD_PIN_MAP lcd, lcdlat, lcdtris; 
....................    #byte lcd = LCD_DATA_PORT 
....................    #byte lcdlat = LCD_DATA_PORT+9 
....................    #byte lcdtris = LCD_DATA_PORT+0x12 
.................... #elif defined(__PCD__) 
....................    LCD_PIN_MAP lcd, lcdlat, lcdtris; 
....................    #word lcd = LCD_DATA_PORT 
....................    #word lcdlat = LCD_DATA_PORT+2 
....................    #word lcdtris = LCD_DATA_PORT-0x02 
.................... #endif 
.................... #endif   //LCD_DATA4 not defined 
....................  
.................... #ifndef LCD_TYPE 
....................    #define LCD_TYPE 2           // 0=5x7, 1=5x10, 2=2 lines 
.................... #endif 
....................  
.................... #ifndef LCD_LINE_TWO 
....................    #define LCD_LINE_TWO 0x40    // LCD RAM address for the second line 
.................... #endif 
....................  
.................... #ifndef LCD_LINE_LENGTH 
....................    #define LCD_LINE_LENGTH 20 
.................... #endif 
....................  
.................... unsigned int8 lcd_read_nibble(void); 
....................  
.................... unsigned int8 lcd_read_byte(void) 
.................... { 
....................    unsigned int8 low,high; 
....................  
....................  #if defined(__PCB__) 
....................    set_tris_lcd(LCD_INPUT_MAP); 
....................  #else 
....................   #if (defined(LCD_DATA4) && defined(LCD_DATA5) && defined(LCD_DATA6) && defined(LCD_DATA7)) 
....................    output_float(LCD_DATA4); 
....................    output_float(LCD_DATA5); 
....................    output_float(LCD_DATA6); 
....................    output_float(LCD_DATA7); 
....................   #else 
....................    lcdtris.data = 0xF; 
*
0109:  MOVLW  0F
010A:  ANDWF  06,W
010B:  IORLW  F0
010C:  MOVWF  06
....................   #endif 
....................  #endif 
....................          
....................    lcd_output_rw(1); 
010D:  BCF    03.5
010E:  BSF    06.2
010F:  BSF    03.5
0110:  BCF    06.2
....................    delay_cycles(1); 
0111:  NOP
....................    lcd_output_enable(1); 
0112:  BCF    03.5
0113:  BSF    06.3
0114:  BSF    03.5
0115:  BCF    06.3
....................    delay_cycles(1); 
0116:  NOP
....................    high = lcd_read_nibble(); 
0117:  BCF    03.5
0118:  CALL   0FB
0119:  MOVF   78,W
011A:  BSF    03.5
011B:  MOVWF  24
....................        
....................    lcd_output_enable(0); 
011C:  BCF    03.5
011D:  BCF    06.3
011E:  BSF    03.5
011F:  BCF    06.3
....................    delay_cycles(1); 
0120:  NOP
....................    lcd_output_enable(1); 
0121:  BCF    03.5
0122:  BSF    06.3
0123:  BSF    03.5
0124:  BCF    06.3
....................    delay_us(1); 
0125:  NOP
....................    low = lcd_read_nibble(); 
0126:  BCF    03.5
0127:  CALL   0FB
0128:  MOVF   78,W
0129:  BSF    03.5
012A:  MOVWF  23
....................        
....................    lcd_output_enable(0); 
012B:  BCF    03.5
012C:  BCF    06.3
012D:  BSF    03.5
012E:  BCF    06.3
....................  
....................  #if defined(__PCB__) 
....................    set_tris_lcd(LCD_OUTPUT_MAP); 
....................  #else 
....................   #if (defined(LCD_DATA4) && defined(LCD_DATA5) && defined(LCD_DATA6) && defined(LCD_DATA7)) 
....................    output_drive(LCD_DATA4); 
....................    output_drive(LCD_DATA5); 
....................    output_drive(LCD_DATA6); 
....................    output_drive(LCD_DATA7); 
....................   #else 
....................    lcdtris.data = 0x0; 
012F:  MOVLW  0F
0130:  ANDWF  06,W
0131:  MOVWF  06
....................   #endif 
....................  #endif 
....................  
....................    return( (high<<4) | low); 
0132:  SWAPF  24,W
0133:  MOVWF  77
0134:  MOVLW  F0
0135:  ANDWF  77,F
0136:  MOVF   77,W
0137:  IORWF  23,W
0138:  MOVWF  78
.................... } 
....................  
.................... unsigned int8 lcd_read_nibble(void) 
.................... { 
....................   #if (defined(LCD_DATA4) && defined(LCD_DATA5) && defined(LCD_DATA6) && defined(LCD_DATA7)) 
....................    unsigned int8 n = 0x00; 
....................  
....................    /* Read the data port */ 
....................    n |= input(LCD_DATA4); 
....................    n |= input(LCD_DATA5) << 1; 
....................    n |= input(LCD_DATA6) << 2; 
....................    n |= input(LCD_DATA7) << 3; 
....................     
....................    return(n); 
....................   #else 
....................    return(lcd.data); 
*
00FB:  MOVF   06,W
00FC:  MOVWF  77
00FD:  SWAPF  06,W
00FE:  ANDLW  0F
00FF:  MOVWF  78
....................   #endif 
0100:  RETURN
.................... } 
....................  
.................... void lcd_send_nibble(unsigned int8 n) 
.................... { 
....................   #if (defined(LCD_DATA4) && defined(LCD_DATA5) && defined(LCD_DATA6) && defined(LCD_DATA7)) 
....................    /* Write to the data port */ 
....................    output_bit(LCD_DATA4, bit_test(n, 0)); 
....................    output_bit(LCD_DATA5, bit_test(n, 1)); 
....................    output_bit(LCD_DATA6, bit_test(n, 2)); 
....................    output_bit(LCD_DATA7, bit_test(n, 3)); 
....................   #else       
....................    lcdlat.data = n; 
*
00E7:  BSF    03.5
00E8:  SWAPF  24,W
00E9:  ANDLW  F0
00EA:  MOVWF  77
00EB:  MOVLW  0F
00EC:  BCF    03.5
00ED:  ANDWF  06,W
00EE:  IORWF  77,W
00EF:  MOVWF  06
....................   #endif 
....................        
....................    delay_cycles(1); 
00F0:  NOP
....................    lcd_output_enable(1); 
00F1:  BSF    06.3
00F2:  BSF    03.5
00F3:  BCF    06.3
....................    delay_us(2); 
00F4:  GOTO   0F5
....................    lcd_output_enable(0); 
00F5:  BCF    03.5
00F6:  BCF    06.3
00F7:  BSF    03.5
00F8:  BCF    06.3
00F9:  BCF    03.5
00FA:  RETURN
.................... } 
....................  
.................... void lcd_send_byte(unsigned int8 address, unsigned int8 n) 
.................... { 
....................   #if defined(__PCB__) 
....................    set_tris_lcd(LCD_OUTPUT_MAP); 
....................   #else 
....................    lcd_enable_tris(); 
*
0101:  BSF    03.5
0102:  BCF    06.3
....................    lcd_rs_tris(); 
0103:  BCF    06.1
....................    lcd_rw_tris(); 
0104:  BCF    06.2
....................   #endif 
....................  
....................    lcd_output_rs(0); 
0105:  BCF    03.5
0106:  BCF    06.1
0107:  BSF    03.5
0108:  BCF    06.1
....................    while ( bit_test(lcd_read_byte(),7) ) ; 
*
0139:  MOVF   78,W
013A:  MOVWF  23
013B:  BTFSC  23.7
013C:  GOTO   109
....................    lcd_output_rs(address); 
013D:  MOVF   21,F
013E:  BTFSS  03.2
013F:  GOTO   144
0140:  BCF    03.5
0141:  BCF    06.1
0142:  GOTO   146
0143:  BSF    03.5
0144:  BCF    03.5
0145:  BSF    06.1
0146:  BSF    03.5
0147:  BCF    06.1
....................    delay_cycles(1); 
0148:  NOP
....................    lcd_output_rw(0); 
0149:  BCF    03.5
014A:  BCF    06.2
014B:  BSF    03.5
014C:  BCF    06.2
....................    delay_cycles(1); 
014D:  NOP
....................    lcd_output_enable(0); 
014E:  BCF    03.5
014F:  BCF    06.3
0150:  BSF    03.5
0151:  BCF    06.3
....................    lcd_send_nibble(n >> 4); 
0152:  SWAPF  22,W
0153:  MOVWF  23
0154:  MOVLW  0F
0155:  ANDWF  23,F
0156:  MOVF   23,W
0157:  MOVWF  24
0158:  BCF    03.5
0159:  CALL   0E7
....................    lcd_send_nibble(n & 0xf); 
015A:  BSF    03.5
015B:  MOVF   22,W
015C:  ANDLW  0F
015D:  MOVWF  23
015E:  MOVWF  24
015F:  BCF    03.5
0160:  CALL   0E7
0161:  RETURN
.................... } 
....................  
.................... #if defined(LCD_EXTENDED_NEWLINE) 
.................... unsigned int8 g_LcdX, g_LcdY; 
.................... #endif 
....................  
.................... void lcd_init(void)  
.................... { 
....................    unsigned int8 i; 
....................    unsigned int8 LCD_INIT_STRING[4] = {0x20 | (LCD_TYPE << 2), 0xc, 1, 6}; 
0162:  MOVLW  28
0163:  MOVWF  69
0164:  MOVLW  0C
0165:  MOVWF  6A
0166:  MOVLW  01
0167:  MOVWF  6B
0168:  MOVLW  06
0169:  MOVWF  6C
....................                              // These bytes need to be sent to the LCD 
....................                              // to start it up. 
....................     
....................  
....................    lcd_output_enable(0); 
016A:  BCF    06.3
016B:  BSF    03.5
016C:  BCF    06.3
....................    lcd_output_rs(0); 
016D:  BCF    03.5
016E:  BCF    06.1
016F:  BSF    03.5
0170:  BCF    06.1
....................    lcd_output_rw(0); 
0171:  BCF    03.5
0172:  BCF    06.2
0173:  BSF    03.5
0174:  BCF    06.2
....................  
....................  #if defined(__PCB__) 
....................    set_tris_lcd(LCD_OUTPUT_MAP); 
....................  #else 
....................   #if (defined(LCD_DATA4) && defined(LCD_DATA5) && defined(LCD_DATA6) && defined(LCD_DATA7)) 
....................    output_drive(LCD_DATA4); 
....................    output_drive(LCD_DATA5); 
....................    output_drive(LCD_DATA6); 
....................    output_drive(LCD_DATA7); 
....................   #else 
....................    lcdtris.data = 0x0; 
0175:  MOVLW  0F
0176:  ANDWF  06,W
0177:  MOVWF  06
....................   #endif 
....................    lcd_enable_tris(); 
0178:  BCF    06.3
....................    lcd_rs_tris(); 
0179:  BCF    06.1
....................    lcd_rw_tris(); 
017A:  BCF    06.2
....................  #endif 
....................      
....................    delay_ms(15); 
017B:  MOVLW  0F
017C:  MOVWF  7C
017D:  BCF    03.5
017E:  CALL   0D2
....................    for(i=1;i<=3;++i) 
017F:  MOVLW  01
0180:  MOVWF  68
0181:  MOVF   68,W
0182:  SUBLW  03
0183:  BTFSS  03.0
0184:  GOTO   18F
....................    { 
....................        lcd_send_nibble(3); 
0185:  MOVLW  03
0186:  BSF    03.5
0187:  MOVWF  24
0188:  BCF    03.5
0189:  CALL   0E7
....................        delay_ms(5); 
018A:  MOVLW  05
018B:  MOVWF  7C
018C:  CALL   0D2
018D:  INCF   68,F
018E:  GOTO   181
....................    } 
....................     
....................    lcd_send_nibble(2); 
018F:  MOVLW  02
0190:  BSF    03.5
0191:  MOVWF  24
0192:  BCF    03.5
0193:  CALL   0E7
....................    delay_ms(5); 
0194:  MOVLW  05
0195:  MOVWF  7C
0196:  CALL   0D2
....................    for(i=0;i<=3;++i) 
0197:  CLRF   68
0198:  MOVF   68,W
0199:  SUBLW  03
019A:  BTFSS  03.0
019B:  GOTO   1AC
....................       lcd_send_byte(0,LCD_INIT_STRING[i]); 
019C:  MOVLW  69
019D:  ADDWF  68,W
019E:  MOVWF  04
019F:  BCF    03.7
01A0:  MOVF   00,W
01A1:  MOVWF  6D
01A2:  BSF    03.5
01A3:  CLRF   21
01A4:  BCF    03.5
01A5:  MOVF   6D,W
01A6:  BSF    03.5
01A7:  MOVWF  22
01A8:  BCF    03.5
01A9:  CALL   101
....................  
....................   #if defined(LCD_EXTENDED_NEWLINE) 
01AA:  INCF   68,F
01AB:  GOTO   198
01AC:  BSF    0A.3
01AD:  BCF    0A.4
01AE:  GOTO   1DB (RETURN)
....................    g_LcdX = 0; 
....................    g_LcdY = 0; 
....................   #endif 
.................... } 
....................  
.................... void lcd_gotoxy(unsigned int8 x, unsigned int8 y) 
.................... { 
....................    unsigned int8 address; 
....................     
....................    if(y!=1) 
01AF:  DECFSZ 7D,W
01B0:  GOTO   1B2
01B1:  GOTO   1B5
....................       address=LCD_LINE_TWO; 
01B2:  MOVLW  40
01B3:  MOVWF  7E
01B4:  GOTO   1B6
....................    else 
....................       address=0; 
01B5:  CLRF   7E
....................       
....................    address+=x-1; 
01B6:  MOVLW  01
01B7:  SUBWF  7C,W
01B8:  ADDWF  7E,F
....................    lcd_send_byte(0,0x80|address); 
01B9:  MOVF   7E,W
01BA:  IORLW  80
01BB:  BSF    03.5
01BC:  MOVWF  20
01BD:  CLRF   21
01BE:  MOVF   20,W
01BF:  MOVWF  22
01C0:  BCF    03.5
01C1:  CALL   101
....................  
....................   #if defined(LCD_EXTENDED_NEWLINE) 
01C2:  RETURN
....................    g_LcdX = x - 1; 
....................    g_LcdY = y - 1; 
....................   #endif 
.................... } 
....................  
.................... void lcd_putc(char c) 
.................... { 
....................    switch (c) 
01C3:  MOVF   7B,W
01C4:  XORLW  07
01C5:  BTFSC  03.2
01C6:  GOTO   1D1
01C7:  XORLW  0B
01C8:  BTFSC  03.2
01C9:  GOTO   1D6
01CA:  XORLW  06
01CB:  BTFSC  03.2
01CC:  GOTO   1E0
01CD:  XORLW  02
01CE:  BTFSC  03.2
01CF:  GOTO   1E6
01D0:  GOTO   1ED
....................    { 
....................       case '\a'   :  lcd_gotoxy(1,1);     break; 
01D1:  MOVLW  01
01D2:  MOVWF  7C
01D3:  MOVWF  7D
01D4:  CALL   1AF
01D5:  GOTO   1F4
....................  
....................       case '\f'   :  lcd_send_byte(0,1); 
01D6:  BSF    03.5
01D7:  CLRF   21
01D8:  MOVLW  01
01D9:  MOVWF  22
01DA:  BCF    03.5
01DB:  CALL   101
....................                      delay_ms(2); 
01DC:  MOVLW  02
01DD:  MOVWF  7C
01DE:  CALL   0D2
....................                     #if defined(LCD_EXTENDED_NEWLINE) 
....................                      g_LcdX = 0; 
....................                      g_LcdY = 0; 
....................                     #endif 
....................                      break; 
01DF:  GOTO   1F4
....................  
....................      #if defined(LCD_EXTENDED_NEWLINE) 
....................       case '\r'   :  lcd_gotoxy(1, g_LcdY+1);   break; 
....................       case '\n'   : 
....................          while (g_LcdX++ < LCD_LINE_LENGTH) 
....................          { 
....................             lcd_send_byte(1, ' '); 
....................          } 
....................          lcd_gotoxy(1, g_LcdY+2); 
....................          break; 
....................      #else 
....................       case '\n'   : lcd_gotoxy(1,2);        break; 
01E0:  MOVLW  01
01E1:  MOVWF  7C
01E2:  MOVLW  02
01E3:  MOVWF  7D
01E4:  CALL   1AF
01E5:  GOTO   1F4
....................      #endif 
....................       
....................       case '\b'   : lcd_send_byte(0,0x10);  break; 
01E6:  BSF    03.5
01E7:  CLRF   21
01E8:  MOVLW  10
01E9:  MOVWF  22
01EA:  BCF    03.5
01EB:  CALL   101
01EC:  GOTO   1F4
....................       
....................      #if defined(LCD_EXTENDED_NEWLINE) 
....................       default     :  
....................          if (g_LcdX < LCD_LINE_LENGTH) 
....................          { 
....................             lcd_send_byte(1, c); 
....................             g_LcdX++; 
....................          } 
....................          break; 
....................      #else 
....................       default     : lcd_send_byte(1,c);     break; 
01ED:  MOVLW  01
01EE:  BSF    03.5
01EF:  MOVWF  21
01F0:  MOVF   7B,W
01F1:  MOVWF  22
01F2:  BCF    03.5
01F3:  CALL   101
....................      #endif 
....................    } 
01F4:  RETURN
.................... } 
....................   
.................... char lcd_getc(unsigned int8 x, unsigned int8 y) 
.................... { 
....................    char value; 
....................  
....................    lcd_gotoxy(x,y); 
....................    while ( bit_test(lcd_read_byte(),7) ); // wait until busy flag is low 
....................    lcd_output_rs(1); 
....................    value = lcd_read_byte(); 
....................    lcd_output_rs(0); 
....................     
....................    return(value); 
.................... } 
....................  
.................... // write a custom character to the ram 
.................... // which is 0-7 and specifies which character array we are modifying. 
.................... // ptr points to an array of 8 bytes, where each byte is the next row of 
.................... //    pixels.  only bits 0-4 are used.  the last row is the cursor row, and 
.................... //    usually you will want to leave this byte 0x00. 
.................... void lcd_set_cgram_char(unsigned int8 which, unsigned int8 *ptr) 
.................... { 
....................    unsigned int i; 
....................  
....................    which <<= 3; 
....................    which &= 0x38; 
....................  
....................    lcd_send_byte(0, 0x40 | which);  //set cgram address 
....................  
....................    for(i=0; i<8; i++) 
....................    { 
....................       lcd_send_byte(1, *ptr++); 
....................    } 
....................    
....................    #if defined(LCD_EXTENDED_NEWLINE) 
....................     lcd_gotoxy(g_LcdX+1, g_LcdY+1);  //set ddram address 
....................    #endif 
.................... } 
....................  
.................... void lcd_cursor_on(int1 on) 
.................... { 
....................    if (on) 
....................    { 
....................       lcd_send_byte(0,0x0F);           //turn LCD cursor ON 
....................    } 
....................    else 
....................    { 
....................       lcd_send_byte(0,0x0C);           //turn LCD cursor OFF 
....................    } 
.................... } 
....................  
.................... #endif 
....................  
....................  
.................... int1  SegPar, BtnPediluvio, BtnZapper; 
.................... int   Min,Seg/*,Anim*/,i; 
.................... int num[61]={0,0,1,2,3,4,5,6,7,8,9, 
....................                10,11,12,13,14,15,16,17,18,19, 
....................                20,21,22,23,24,25,26,27,28,29, 
....................                30,31,32,33,34,35,36,37,38,39, 
....................                40,41,42,43,44,45,46,47,48,49, 
....................                50,51,52,53,54,55,56,57,58,59}; 
*
0960:  BCF    03.5
0961:  CLRF   24
0962:  CLRF   25
0963:  MOVLW  01
0964:  MOVWF  26
0965:  MOVLW  02
0966:  MOVWF  27
0967:  MOVLW  03
0968:  MOVWF  28
0969:  MOVLW  04
096A:  MOVWF  29
096B:  MOVLW  05
096C:  MOVWF  2A
096D:  MOVLW  06
096E:  MOVWF  2B
096F:  MOVLW  07
0970:  MOVWF  2C
0971:  MOVLW  08
0972:  MOVWF  2D
0973:  MOVLW  09
0974:  MOVWF  2E
0975:  MOVLW  0A
0976:  MOVWF  2F
0977:  MOVLW  0B
0978:  MOVWF  30
0979:  MOVLW  0C
097A:  MOVWF  31
097B:  MOVLW  0D
097C:  MOVWF  32
097D:  MOVLW  0E
097E:  MOVWF  33
097F:  MOVLW  0F
0980:  MOVWF  34
0981:  MOVLW  10
0982:  MOVWF  35
0983:  MOVLW  11
0984:  MOVWF  36
0985:  MOVLW  12
0986:  MOVWF  37
0987:  MOVLW  13
0988:  MOVWF  38
0989:  MOVLW  14
098A:  MOVWF  39
098B:  MOVLW  15
098C:  MOVWF  3A
098D:  MOVLW  16
098E:  MOVWF  3B
098F:  MOVLW  17
0990:  MOVWF  3C
0991:  MOVLW  18
0992:  MOVWF  3D
0993:  MOVLW  19
0994:  MOVWF  3E
0995:  MOVLW  1A
0996:  MOVWF  3F
0997:  MOVLW  1B
0998:  MOVWF  40
0999:  MOVLW  1C
099A:  MOVWF  41
099B:  MOVLW  1D
099C:  MOVWF  42
099D:  MOVLW  1E
099E:  MOVWF  43
099F:  MOVLW  1F
09A0:  MOVWF  44
09A1:  MOVLW  20
09A2:  MOVWF  45
09A3:  MOVLW  21
09A4:  MOVWF  46
09A5:  MOVLW  22
09A6:  MOVWF  47
09A7:  MOVLW  23
09A8:  MOVWF  48
09A9:  MOVLW  24
09AA:  MOVWF  49
09AB:  MOVLW  25
09AC:  MOVWF  4A
09AD:  MOVLW  26
09AE:  MOVWF  4B
09AF:  MOVLW  27
09B0:  MOVWF  4C
09B1:  MOVLW  28
09B2:  MOVWF  4D
09B3:  MOVLW  29
09B4:  MOVWF  4E
09B5:  MOVLW  2A
09B6:  MOVWF  4F
09B7:  MOVLW  2B
09B8:  MOVWF  50
09B9:  MOVLW  2C
09BA:  MOVWF  51
09BB:  MOVLW  2D
09BC:  MOVWF  52
09BD:  MOVLW  2E
09BE:  MOVWF  53
09BF:  MOVLW  2F
09C0:  MOVWF  54
09C1:  MOVLW  30
09C2:  MOVWF  55
09C3:  MOVLW  31
09C4:  MOVWF  56
09C5:  MOVLW  32
09C6:  MOVWF  57
09C7:  MOVLW  33
09C8:  MOVWF  58
09C9:  MOVLW  34
09CA:  MOVWF  59
09CB:  MOVLW  35
09CC:  MOVWF  5A
09CD:  MOVLW  36
09CE:  MOVWF  5B
09CF:  MOVLW  37
09D0:  MOVWF  5C
09D1:  MOVLW  38
09D2:  MOVWF  5D
09D3:  MOVLW  39
09D4:  MOVWF  5E
09D5:  MOVLW  3A
09D6:  MOVWF  5F
09D7:  MOVLW  3B
09D8:  MOVWF  60
.................... int16 q; 
.................... float Amp; 
....................  
.................... void Pitido() 
.................... { 
....................    setup_timer_2(T2_DIV_BY_16,155,2);  // PWM 200.3KHz 
*
0640:  MOVLW  08
0641:  MOVWF  78
0642:  IORLW  06
0643:  MOVWF  12
0644:  MOVLW  9B
0645:  BSF    03.5
0646:  MOVWF  12
....................    setup_ccp2(CCP_PWM); 
0647:  BCF    03.5
0648:  BCF    67.1
0649:  MOVF   67,W
064A:  BSF    03.5
064B:  MOVWF  07
064C:  BCF    03.5
064D:  BCF    07.1
064E:  MOVLW  0C
064F:  MOVWF  1D
....................    delay_ms(75); 
0650:  MOVLW  4B
0651:  MOVWF  7C
0652:  CALL   0D2
....................    setup_ccp2(CCP_OFF); 
0653:  MOVLW  F0
0654:  ANDWF  1D,F
....................    setup_timer_2(T2_DISABLED,1,1); 
0655:  MOVLW  00
0656:  MOVWF  78
0657:  MOVWF  12
0658:  MOVLW  01
0659:  BSF    03.5
065A:  MOVWF  12
065B:  BCF    03.5
065C:  RETURN
.................... } 
.................... void Animacion()  // * ZELECTRON CA * 
.................... { 
....................    delay_ms(250); 
*
024B:  MOVLW  FA
024C:  MOVWF  7C
024D:  CALL   0D2
....................    lcd_gotoxy(1,1); 
024E:  MOVLW  01
024F:  MOVWF  7C
0250:  MOVWF  7D
0251:  CALL   1AF
....................    printf(lcd_putc,"  Z             "); 
0252:  MOVLW  04
0253:  BSF    03.6
0254:  MOVWF  0D
0255:  MOVLW  00
0256:  MOVWF  0F
0257:  BCF    03.6
0258:  CALL   1F5
....................    delay_ms(100); 
0259:  MOVLW  64
025A:  MOVWF  7C
025B:  CALL   0D2
....................    lcd_gotoxy(1,1); 
025C:  MOVLW  01
025D:  MOVWF  7C
025E:  MOVWF  7D
025F:  CALL   1AF
....................    printf(lcd_putc,"  ZE            "); 
0260:  MOVLW  0D
0261:  BSF    03.6
0262:  MOVWF  0D
0263:  MOVLW  00
0264:  MOVWF  0F
0265:  BCF    03.6
0266:  CALL   1F5
....................    delay_ms(100); 
0267:  MOVLW  64
0268:  MOVWF  7C
0269:  CALL   0D2
....................    lcd_gotoxy(1,1); 
026A:  MOVLW  01
026B:  MOVWF  7C
026C:  MOVWF  7D
026D:  CALL   1AF
....................    printf(lcd_putc,"  ZEL           "); 
026E:  MOVLW  16
026F:  BSF    03.6
0270:  MOVWF  0D
0271:  MOVLW  00
0272:  MOVWF  0F
0273:  BCF    03.6
0274:  CALL   1F5
....................    delay_ms(100); 
0275:  MOVLW  64
0276:  MOVWF  7C
0277:  CALL   0D2
....................    lcd_gotoxy(1,1); 
0278:  MOVLW  01
0279:  MOVWF  7C
027A:  MOVWF  7D
027B:  CALL   1AF
....................    printf(lcd_putc,"  ZELE          "); 
027C:  MOVLW  1F
027D:  BSF    03.6
027E:  MOVWF  0D
027F:  MOVLW  00
0280:  MOVWF  0F
0281:  BCF    03.6
0282:  CALL   1F5
....................    delay_ms(100); 
0283:  MOVLW  64
0284:  MOVWF  7C
0285:  CALL   0D2
....................    lcd_gotoxy(1,1); 
0286:  MOVLW  01
0287:  MOVWF  7C
0288:  MOVWF  7D
0289:  CALL   1AF
....................    printf(lcd_putc,"  ZELEC         "); 
028A:  MOVLW  28
028B:  BSF    03.6
028C:  MOVWF  0D
028D:  MOVLW  00
028E:  MOVWF  0F
028F:  BCF    03.6
0290:  CALL   1F5
....................    delay_ms(100); 
0291:  MOVLW  64
0292:  MOVWF  7C
0293:  CALL   0D2
....................    lcd_gotoxy(1,1); 
0294:  MOVLW  01
0295:  MOVWF  7C
0296:  MOVWF  7D
0297:  CALL   1AF
....................    printf(lcd_putc,"  ZELECT        "); 
0298:  MOVLW  31
0299:  BSF    03.6
029A:  MOVWF  0D
029B:  MOVLW  00
029C:  MOVWF  0F
029D:  BCF    03.6
029E:  CALL   1F5
....................    delay_ms(100); 
029F:  MOVLW  64
02A0:  MOVWF  7C
02A1:  CALL   0D2
....................    lcd_gotoxy(1,1); 
02A2:  MOVLW  01
02A3:  MOVWF  7C
02A4:  MOVWF  7D
02A5:  CALL   1AF
....................    printf(lcd_putc,"  ZELECTR       "); 
02A6:  MOVLW  3A
02A7:  BSF    03.6
02A8:  MOVWF  0D
02A9:  MOVLW  00
02AA:  MOVWF  0F
02AB:  BCF    03.6
02AC:  CALL   1F5
....................    delay_ms(100); 
02AD:  MOVLW  64
02AE:  MOVWF  7C
02AF:  CALL   0D2
....................    lcd_gotoxy(1,1); 
02B0:  MOVLW  01
02B1:  MOVWF  7C
02B2:  MOVWF  7D
02B3:  CALL   1AF
....................    printf(lcd_putc,"  ZELECTRO      "); 
02B4:  MOVLW  43
02B5:  BSF    03.6
02B6:  MOVWF  0D
02B7:  MOVLW  00
02B8:  MOVWF  0F
02B9:  BCF    03.6
02BA:  CALL   1F5
....................    delay_ms(100); 
02BB:  MOVLW  64
02BC:  MOVWF  7C
02BD:  CALL   0D2
....................    lcd_gotoxy(1,1); 
02BE:  MOVLW  01
02BF:  MOVWF  7C
02C0:  MOVWF  7D
02C1:  CALL   1AF
....................    printf(lcd_putc,"  ZELECTRON     "); 
02C2:  MOVLW  4C
02C3:  BSF    03.6
02C4:  MOVWF  0D
02C5:  MOVLW  00
02C6:  MOVWF  0F
02C7:  BCF    03.6
02C8:  CALL   1F5
....................    delay_ms(100); 
02C9:  MOVLW  64
02CA:  MOVWF  7C
02CB:  CALL   0D2
....................    lcd_gotoxy(1,1); 
02CC:  MOVLW  01
02CD:  MOVWF  7C
02CE:  MOVWF  7D
02CF:  CALL   1AF
....................    printf(lcd_putc,"  ZELECTRON C   "); 
02D0:  MOVLW  55
02D1:  BSF    03.6
02D2:  MOVWF  0D
02D3:  MOVLW  00
02D4:  MOVWF  0F
02D5:  BCF    03.6
02D6:  CALL   1F5
....................    delay_ms(100); 
02D7:  MOVLW  64
02D8:  MOVWF  7C
02D9:  CALL   0D2
....................    lcd_gotoxy(1,1); 
02DA:  MOVLW  01
02DB:  MOVWF  7C
02DC:  MOVWF  7D
02DD:  CALL   1AF
....................    printf(lcd_putc,"  ZELECTRON CA  "); 
02DE:  MOVLW  5E
02DF:  BSF    03.6
02E0:  MOVWF  0D
02E1:  MOVLW  00
02E2:  MOVWF  0F
02E3:  BCF    03.6
02E4:  CALL   1F5
....................    delay_ms(1000); 
02E5:  MOVLW  04
02E6:  MOVWF  68
02E7:  MOVLW  FA
02E8:  MOVWF  7C
02E9:  CALL   0D2
02EA:  DECFSZ 68,F
02EB:  GOTO   2E7
....................     
.................... /*   printf(lcd_putc,"* ZELECTRON CA *"); 
....................    delay_ms(500); 
....................    for(Anim=0;Anim<3;Anim++)  // Animacin de Inicio 
....................    { 
....................       printf(lcd_putc,"\n>"); 
....................       delay_ms(25); 
....................       printf(lcd_putc,"\n >"); 
....................       delay_ms(25); 
....................       printf(lcd_putc,"\n  >"); 
....................       delay_ms(25); 
....................       printf(lcd_putc,"\n   >"); 
....................       delay_ms(25); 
....................       printf(lcd_putc,"\n    >"); 
....................       delay_ms(25); 
....................       printf(lcd_putc,"\n     >"); 
....................       delay_ms(25); 
....................       printf(lcd_putc,"\n      >"); 
....................       delay_ms(25); 
....................       printf(lcd_putc,"\n       >"); 
....................       delay_ms(25); 
....................       printf(lcd_putc,"\n        >"); 
....................       delay_ms(25); 
....................       printf(lcd_putc,"\n         >"); 
....................       delay_ms(25); 
....................       printf(lcd_putc,"\n          >"); 
....................       delay_ms(25); 
....................       printf(lcd_putc,"\n           >"); 
....................       delay_ms(25); 
....................       printf(lcd_putc,"\n            >"); 
....................       delay_ms(25); 
....................       printf(lcd_putc,"\n             >"); 
....................       delay_ms(25); 
....................       printf(lcd_putc,"\n              >"); 
....................       delay_ms(25); 
....................       printf(lcd_putc,"\n               >"); 
....................       delay_ms(25); 
....................       printf(lcd_putc,"\n                >"); 
....................       delay_ms(500); 
....................    }*/ 
....................    printf(lcd_putc,"\f"); 
02EC:  MOVLW  0C
02ED:  MOVWF  7B
02EE:  CALL   1C3
02EF:  BSF    0A.3
02F0:  BCF    0A.4
02F1:  GOTO   206 (RETURN)
.................... } 
.................... void LeerADC() 
.................... { 
....................    q=read_adc(); 
*
0378:  BSF    1F.2
0379:  BTFSC  1F.2
037A:  GOTO   379
037B:  BSF    03.5
037C:  MOVF   1E,W
037D:  BCF    03.5
037E:  MOVWF  61
037F:  MOVF   1E,W
0380:  MOVWF  62
....................    Amp=(5.0*q)/1024.0; 
0381:  MOVF   62,W
0382:  MOVWF  69
0383:  MOVF   61,W
0384:  MOVWF  68
*
03A1:  CLRF   7E
03A2:  CLRF   7D
03A3:  MOVLW  20
03A4:  MOVWF  7C
03A5:  MOVLW  81
03A6:  MOVWF  7B
03A7:  MOVF   7A,W
03A8:  BSF    03.5
03A9:  MOVWF  23
03AA:  MOVF   79,W
03AB:  MOVWF  22
03AC:  MOVF   78,W
03AD:  MOVWF  21
03AE:  MOVF   77,W
03AF:  MOVWF  20
03B0:  BCF    03.5
03B1:  CALL   2F2
03B2:  MOVF   7A,W
03B3:  MOVWF  6B
03B4:  MOVF   79,W
03B5:  MOVWF  6A
03B6:  MOVF   78,W
03B7:  MOVWF  69
03B8:  MOVF   77,W
03B9:  MOVWF  68
03BA:  MOVF   6B,W
03BB:  MOVWF  6F
03BC:  MOVF   6A,W
03BD:  MOVWF  6E
03BE:  MOVF   69,W
03BF:  MOVWF  6D
03C0:  MOVF   68,W
03C1:  MOVWF  6C
03C2:  CLRF   73
03C3:  CLRF   72
03C4:  CLRF   71
03C5:  MOVLW  89
03C6:  MOVWF  70
*
04A6:  MOVF   7A,W
04A7:  BCF    03.5
04A8:  MOVWF  66
04A9:  MOVF   79,W
04AA:  MOVWF  65
04AB:  MOVF   78,W
04AC:  MOVWF  64
04AD:  MOVF   77,W
04AE:  MOVWF  63
04AF:  RETURN
.................... } 
.................... void Mostrar1() 
.................... { 
....................    printf(lcd_putc,"\nTMP %02d:%02d   %1.1fA",num[Min],num[Seg],Amp); 
*
085C:  MOVLW  24
085D:  ADDWF  21,W
085E:  MOVWF  04
085F:  BCF    03.7
0860:  MOVF   00,W
0861:  MOVWF  68
0862:  MOVLW  24
0863:  ADDWF  22,W
0864:  MOVWF  04
0865:  BCF    03.7
0866:  MOVF   00,W
0867:  MOVWF  69
0868:  MOVLW  67
0869:  BSF    03.6
086A:  MOVWF  0D
086B:  MOVLW  00
086C:  MOVWF  0F
086D:  BCF    03.0
086E:  MOVLW  05
086F:  BCF    03.6
0870:  MOVWF  6A
0871:  BCF    0A.3
0872:  CALL   4B0
0873:  BSF    0A.3
0874:  MOVF   68,W
0875:  MOVWF  6A
0876:  MOVLW  01
0877:  MOVWF  6B
0878:  BCF    0A.3
0879:  CALL   768
087A:  BSF    0A.3
087B:  MOVLW  3A
087C:  MOVWF  7B
087D:  BCF    0A.3
087E:  CALL   1C3
087F:  BSF    0A.3
0880:  MOVF   69,W
0881:  MOVWF  6A
0882:  MOVLW  01
0883:  MOVWF  6B
0884:  BCF    0A.3
0885:  CALL   768
0886:  BSF    0A.3
0887:  MOVLW  20
0888:  MOVWF  7B
0889:  BCF    0A.3
088A:  CALL   1C3
088B:  BSF    0A.3
088C:  MOVLW  20
088D:  MOVWF  7B
088E:  BCF    0A.3
088F:  CALL   1C3
0890:  BSF    0A.3
0891:  MOVLW  20
0892:  MOVWF  7B
0893:  BCF    0A.3
0894:  CALL   1C3
0895:  BSF    0A.3
0896:  MOVLW  89
0897:  MOVWF  04
0898:  MOVF   66,W
0899:  MOVWF  6D
089A:  MOVF   65,W
089B:  MOVWF  6C
089C:  MOVF   64,W
089D:  MOVWF  6B
089E:  MOVF   63,W
089F:  MOVWF  6A
08A0:  MOVLW  01
08A1:  MOVWF  6E
08A2:  BCF    0A.3
08A3:  CALL   558
08A4:  BSF    0A.3
08A5:  MOVLW  41
08A6:  MOVWF  7B
08A7:  BCF    0A.3
08A8:  CALL   1C3
08A9:  BSF    0A.3
.................... } 
.................... void Mostrar2() 
.................... { 
....................    printf(lcd_putc,"\nTMP %02d %02d   %1.1fA",num[Min],num[Seg],Amp); 
*
08BF:  MOVLW  24
08C0:  ADDWF  21,W
08C1:  MOVWF  04
08C2:  BCF    03.7
08C3:  MOVF   00,W
08C4:  MOVWF  68
08C5:  MOVLW  24
08C6:  ADDWF  22,W
08C7:  MOVWF  04
08C8:  BCF    03.7
08C9:  MOVF   00,W
08CA:  MOVWF  69
08CB:  MOVLW  73
08CC:  BSF    03.6
08CD:  MOVWF  0D
08CE:  MOVLW  00
08CF:  MOVWF  0F
08D0:  BCF    03.0
08D1:  MOVLW  05
08D2:  BCF    03.6
08D3:  MOVWF  6A
08D4:  BCF    0A.3
08D5:  CALL   4B0
08D6:  BSF    0A.3
08D7:  MOVF   68,W
08D8:  MOVWF  6A
08D9:  MOVLW  01
08DA:  MOVWF  6B
08DB:  BCF    0A.3
08DC:  CALL   768
08DD:  BSF    0A.3
08DE:  MOVLW  20
08DF:  MOVWF  7B
08E0:  BCF    0A.3
08E1:  CALL   1C3
08E2:  BSF    0A.3
08E3:  MOVF   69,W
08E4:  MOVWF  6A
08E5:  MOVLW  01
08E6:  MOVWF  6B
08E7:  BCF    0A.3
08E8:  CALL   768
08E9:  BSF    0A.3
08EA:  MOVLW  20
08EB:  MOVWF  7B
08EC:  BCF    0A.3
08ED:  CALL   1C3
08EE:  BSF    0A.3
08EF:  MOVLW  20
08F0:  MOVWF  7B
08F1:  BCF    0A.3
08F2:  CALL   1C3
08F3:  BSF    0A.3
08F4:  MOVLW  20
08F5:  MOVWF  7B
08F6:  BCF    0A.3
08F7:  CALL   1C3
08F8:  BSF    0A.3
08F9:  MOVLW  89
08FA:  MOVWF  04
08FB:  MOVF   66,W
08FC:  MOVWF  6D
08FD:  MOVF   65,W
08FE:  MOVWF  6C
08FF:  MOVF   64,W
0900:  MOVWF  6B
0901:  MOVF   63,W
0902:  MOVWF  6A
0903:  MOVLW  01
0904:  MOVWF  6E
0905:  BCF    0A.3
0906:  CALL   558
0907:  BSF    0A.3
0908:  MOVLW  41
0909:  MOVWF  7B
090A:  BCF    0A.3
090B:  CALL   1C3
090C:  BSF    0A.3
.................... } 
.................... void Exceso() 
.................... { 
....................    while(Amp>1.4) // EXCESO DE SOLUCION 
*
065D:  MOVLW  33
065E:  MOVWF  6B
065F:  MOVWF  6A
0660:  MOVWF  69
0661:  MOVLW  7F
0662:  MOVWF  68
0663:  MOVF   66,W
0664:  MOVWF  6F
0665:  MOVF   65,W
0666:  MOVWF  6E
0667:  MOVF   64,W
0668:  MOVWF  6D
0669:  MOVF   63,W
066A:  MOVWF  6C
*
06A9:  BTFSS  03.0
06AA:  GOTO   6DA
....................    { 
....................       lcd_gotoxy(1,1); 
06AB:  MOVLW  01
06AC:  MOVWF  7C
06AD:  MOVWF  7D
06AE:  CALL   1AF
....................       printf(lcd_putc,"EXCESO  SOLUCION"); 
06AF:  MOVLW  7F
06B0:  BSF    03.6
06B1:  MOVWF  0D
06B2:  MOVLW  00
06B3:  MOVWF  0F
06B4:  BCF    03.6
06B5:  CALL   1F5
....................       LeerADC(); 
06B6:  CALL   378
....................       printf(lcd_putc,"\n      %1.1fA      ",Amp); 
06B7:  MOVLW  88
06B8:  BSF    03.6
06B9:  MOVWF  0D
06BA:  MOVLW  00
06BB:  MOVWF  0F
06BC:  BCF    03.0
06BD:  MOVLW  07
06BE:  BCF    03.6
06BF:  MOVWF  6A
06C0:  CALL   4B0
06C1:  MOVLW  89
06C2:  MOVWF  04
06C3:  MOVF   66,W
06C4:  MOVWF  6D
06C5:  MOVF   65,W
06C6:  MOVWF  6C
06C7:  MOVF   64,W
06C8:  MOVWF  6B
06C9:  MOVF   63,W
06CA:  MOVWF  6A
06CB:  MOVLW  01
06CC:  MOVWF  6E
06CD:  CALL   558
06CE:  MOVLW  8E
06CF:  BSF    03.6
06D0:  MOVWF  0D
06D1:  MOVLW  00
06D2:  MOVWF  0F
06D3:  BCF    03.0
06D4:  MOVLW  07
06D5:  BCF    03.6
06D6:  MOVWF  6A
06D7:  CALL   4B0
....................       Pitido(); 
06D8:  CALL   640
06D9:  GOTO   65D
....................    } 
06DA:  RETURN
.................... } 
.................... void Pediluvio() 
.................... { 
....................    BtnPediluvio=0; 
06DB:  BCF    20.1
....................    BtnZapper=1; 
06DC:  BSF    20.2
....................    lcd_gotoxy(1,1); 
06DD:  MOVLW  01
06DE:  MOVWF  7C
06DF:  MOVWF  7D
06E0:  CALL   1AF
....................    printf(lcd_putc,"*  FOOTSHOWER  *"); 
06E1:  MOVLW  92
06E2:  BSF    03.6
06E3:  MOVWF  0D
06E4:  MOVLW  00
06E5:  MOVWF  0F
06E6:  BCF    03.6
06E7:  CALL   1F5
....................    printf(lcd_putc,"\n      %1.1fA      ",Amp); 
06E8:  MOVLW  9B
06E9:  BSF    03.6
06EA:  MOVWF  0D
06EB:  MOVLW  00
06EC:  MOVWF  0F
06ED:  BCF    03.0
06EE:  MOVLW  07
06EF:  BCF    03.6
06F0:  MOVWF  6A
06F1:  CALL   4B0
06F2:  MOVLW  89
06F3:  MOVWF  04
06F4:  MOVF   66,W
06F5:  MOVWF  6D
06F6:  MOVF   65,W
06F7:  MOVWF  6C
06F8:  MOVF   64,W
06F9:  MOVWF  6B
06FA:  MOVF   63,W
06FB:  MOVWF  6A
06FC:  MOVLW  01
06FD:  MOVWF  6E
06FE:  CALL   558
06FF:  MOVLW  A1
0700:  BSF    03.6
0701:  MOVWF  0D
0702:  MOVLW  00
0703:  MOVWF  0F
0704:  BCF    03.0
0705:  MOVLW  07
0706:  BCF    03.6
0707:  MOVWF  6A
0708:  CALL   4B0
....................    Exceso(); 
0709:  CALL   65D
070A:  BSF    0A.3
070B:  BCF    0A.4
070C:  GOTO   214 (RETURN)
.................... } 
.................... void Estado() 
.................... { 
....................    if(!input(PIN_A1)) // B-Inicio 
070D:  BSF    03.5
070E:  BSF    05.1
070F:  BCF    03.5
0710:  BTFSC  05.1
0711:  GOTO   741
....................    { 
....................       while(!input(PIN_A1)) 
0712:  BSF    03.5
0713:  BSF    05.1
0714:  BCF    03.5
0715:  BTFSC  05.1
0716:  GOTO   71B
....................          { 
....................             delay_ms(150);                                                       // Antirrebote 
0717:  MOVLW  96
0718:  MOVWF  7C
0719:  CALL   0D2
071A:  GOTO   712
....................          } 
....................       lcd_gotoxy(1,1); 
071B:  MOVLW  01
071C:  MOVWF  7C
071D:  MOVWF  7D
071E:  CALL   1AF
....................       printf(lcd_putc,"PROCESO DETENIDO"); 
071F:  MOVLW  A5
0720:  BSF    03.6
0721:  MOVWF  0D
0722:  MOVLW  00
0723:  MOVWF  0F
0724:  BCF    03.6
0725:  CALL   1F5
....................       setup_ccp1(CCP_OFF); 
0726:  MOVLW  F0
0727:  ANDWF  17,F
....................       setup_timer_2(T2_DISABLED,1,1);       
0728:  MOVLW  00
0729:  MOVWF  78
072A:  MOVWF  12
072B:  MOVLW  01
072C:  BSF    03.5
072D:  MOVWF  12
....................       Pitido(); 
072E:  BCF    03.5
072F:  CALL   640
....................       delay_ms(100); 
0730:  MOVLW  64
0731:  MOVWF  7C
0732:  CALL   0D2
....................       Pitido(); 
0733:  CALL   640
....................       delay_ms(100); 
0734:  MOVLW  64
0735:  MOVWF  7C
0736:  CALL   0D2
....................       Pitido(); 
0737:  CALL   640
....................       delay_ms(2000); 
0738:  MOVLW  08
0739:  MOVWF  68
073A:  MOVLW  FA
073B:  MOVWF  7C
073C:  CALL   0D2
073D:  DECFSZ 68,F
073E:  GOTO   73A
....................       reset_cpu(); 
073F:  CLRF   0A
0740:  GOTO   000
....................    } 
....................    if(!input(PIN_A2)) // B-Zapper 
0741:  BSF    03.5
0742:  BSF    05.2
0743:  BCF    03.5
0744:  BTFSC  05.2
0745:  GOTO   752
....................    { 
....................       Pitido(); 
0746:  CALL   640
....................       BtnZapper++; 
0747:  MOVLW  04
0748:  XORWF  20,F
....................       while(!input(PIN_A2))    // Antirrebote 
0749:  BSF    03.5
074A:  BSF    05.2
074B:  BCF    03.5
074C:  BTFSC  05.2
074D:  GOTO   752
....................       { 
....................          delay_ms(150); 
074E:  MOVLW  96
074F:  MOVWF  7C
0750:  CALL   0D2
0751:  GOTO   749
....................       } 
....................    } 
0752:  RETURN
.................... } 
.................... void PediluvioOperando() 
.................... { 
....................    for(Min=60;Min>0;Min--) 
*
0800:  MOVLW  3C
0801:  MOVWF  21
0802:  MOVF   21,F
0803:  BTFSC  03.2
0804:  GOTO   11A
....................    { 
....................       for(Seg=60;Seg>0;Seg--) 
0805:  MOVLW  3C
0806:  MOVWF  22
0807:  MOVF   22,F
0808:  BTFSC  03.2
0809:  GOTO   118
....................       { 
....................          lcd_gotoxy(1,1); 
080A:  MOVLW  01
080B:  MOVWF  7C
080C:  MOVWF  7D
080D:  BCF    0A.3
080E:  CALL   1AF
080F:  BSF    0A.3
....................          if(SegPar==1) 
0810:  BTFSS  20.0
0811:  GOTO   01B
....................          { 
....................             printf(lcd_putc," FOOTSHOWER  ON "); 
0812:  MOVLW  AE
0813:  BSF    03.6
0814:  MOVWF  0D
0815:  MOVLW  00
0816:  MOVWF  0F
0817:  BCF    0A.3
0818:  BCF    03.6
0819:  CALL   1F5
081A:  BSF    0A.3
....................          } 
....................          if(SegPar==0) 
081B:  BTFSC  20.0
081C:  GOTO   04E
....................          { 
....................             if(BtnZapper==1) 
081D:  BTFSS  20.2
081E:  GOTO   03A
....................             { 
....................                printf(lcd_putc," ZAPPER      ON "); 
081F:  MOVLW  B7
0820:  BSF    03.6
0821:  MOVWF  0D
0822:  MOVLW  00
0823:  MOVWF  0F
0824:  BCF    0A.3
0825:  BCF    03.6
0826:  CALL   1F5
0827:  BSF    0A.3
....................                setup_timer_2(T2_DIV_BY_1,32,1);   // PWM frequency to 30.3KHz 
0828:  MOVLW  00
0829:  MOVWF  78
082A:  IORLW  04
082B:  MOVWF  12
082C:  MOVLW  20
082D:  BSF    03.5
082E:  MOVWF  12
....................                set_pwm1_duty(128); 
082F:  MOVLW  80
0830:  BCF    03.5
0831:  MOVWF  15
....................                setup_ccp1(CCP_PWM); 
0832:  BCF    67.2
0833:  MOVF   67,W
0834:  BSF    03.5
0835:  MOVWF  07
0836:  BCF    03.5
0837:  BCF    07.2
0838:  MOVLW  0C
0839:  MOVWF  17
....................             } 
....................             if(BtnZapper==0) 
083A:  BTFSC  20.2
083B:  GOTO   04E
....................             { 
....................                printf(lcd_putc," ZAPPER     OFF "); 
083C:  MOVLW  C0
083D:  BSF    03.6
083E:  MOVWF  0D
083F:  MOVLW  00
0840:  MOVWF  0F
0841:  BCF    0A.3
0842:  BCF    03.6
0843:  CALL   1F5
0844:  BSF    0A.3
....................                setup_ccp1(CCP_OFF); 
0845:  MOVLW  F0
0846:  ANDWF  17,F
....................                setup_timer_2(T2_DISABLED,1,1); 
0847:  MOVLW  00
0848:  MOVWF  78
0849:  MOVWF  12
084A:  MOVLW  01
084B:  BSF    03.5
084C:  MOVWF  12
084D:  BCF    03.5
....................             } 
....................          } 
....................          for(i=0;i<10;i++) 
084E:  CLRF   23
084F:  MOVF   23,W
0850:  SUBLW  09
0851:  BTFSS  03.0
0852:  GOTO   0B1
....................          { 
....................             Estado(); 
0853:  BCF    0A.3
0854:  CALL   70D
0855:  BSF    0A.3
....................             LeerADC(); 
0856:  BCF    0A.3
0857:  CALL   378
0858:  BSF    0A.3
....................             Exceso(); 
0859:  BCF    0A.3
085A:  CALL   65D
085B:  BSF    0A.3
....................             Mostrar1(); 
....................             delay_ms(21); 
*
08AA:  MOVLW  15
08AB:  MOVWF  7C
08AC:  BCF    0A.3
08AD:  CALL   0D2
08AE:  BSF    0A.3
08AF:  INCF   23,F
08B0:  GOTO   04F
....................          } 
....................          for(i=0;i<10;i++) 
08B1:  CLRF   23
08B2:  MOVF   23,W
08B3:  SUBLW  09
08B4:  BTFSS  03.0
08B5:  GOTO   114
....................          { 
....................             Estado(); 
08B6:  BCF    0A.3
08B7:  CALL   70D
08B8:  BSF    0A.3
....................             LeerADC(); 
08B9:  BCF    0A.3
08BA:  CALL   378
08BB:  BSF    0A.3
....................             Exceso(); 
08BC:  BCF    0A.3
08BD:  CALL   65D
08BE:  BSF    0A.3
....................             Mostrar2(); 
....................             delay_ms(22); 
*
090D:  MOVLW  16
090E:  MOVWF  7C
090F:  BCF    0A.3
0910:  CALL   0D2
0911:  BSF    0A.3
0912:  INCF   23,F
0913:  GOTO   0B2
....................          } 
....................          SegPar++; 
0914:  MOVLW  01
0915:  XORWF  20,F
0916:  DECF   22,F
0917:  GOTO   007
....................       } 
0918:  DECF   21,F
0919:  GOTO   002
....................    } 
....................    lcd_gotoxy(1,1); 
091A:  MOVLW  01
091B:  MOVWF  7C
091C:  MOVWF  7D
091D:  BCF    0A.3
091E:  CALL   1AF
091F:  BSF    0A.3
....................    printf(lcd_putc,"\f FIN DE TERAPIA "); 
0920:  MOVLW  C9
0921:  BSF    03.6
0922:  MOVWF  0D
0923:  MOVLW  00
0924:  MOVWF  0F
0925:  BCF    0A.3
0926:  BCF    03.6
0927:  CALL   1F5
0928:  BSF    0A.3
....................    setup_ccp1(CCP_OFF); 
0929:  MOVLW  F0
092A:  ANDWF  17,F
....................    setup_timer_2(T2_DISABLED,1,1); 
092B:  MOVLW  00
092C:  MOVWF  78
092D:  MOVWF  12
092E:  MOVLW  01
092F:  BSF    03.5
0930:  MOVWF  12
....................    Pitido(); 
0931:  BCF    0A.3
0932:  BCF    03.5
0933:  CALL   640
0934:  BSF    0A.3
....................    delay_ms(100); 
0935:  MOVLW  64
0936:  MOVWF  7C
0937:  BCF    0A.3
0938:  CALL   0D2
0939:  BSF    0A.3
....................    Pitido(); 
093A:  BCF    0A.3
093B:  CALL   640
093C:  BSF    0A.3
....................    delay_ms(100); 
093D:  MOVLW  64
093E:  MOVWF  7C
093F:  BCF    0A.3
0940:  CALL   0D2
0941:  BSF    0A.3
....................    Pitido(); 
0942:  BCF    0A.3
0943:  CALL   640
0944:  BSF    0A.3
....................    delay_ms(2000); 
0945:  MOVLW  08
0946:  MOVWF  68
0947:  MOVLW  FA
0948:  MOVWF  7C
0949:  BCF    0A.3
094A:  CALL   0D2
094B:  BSF    0A.3
094C:  DECFSZ 68,F
094D:  GOTO   147
....................    reset_cpu(); 
094E:  CLRF   0A
094F:  GOTO   000
0950:  BSF    0A.3
0951:  BCF    0A.4
0952:  GOTO   21A (RETURN)
.................... } 
.................... void main() 
0953:  MOVF   03,W
0954:  ANDLW  1F
0955:  MOVWF  03
0956:  MOVLW  FF
0957:  MOVWF  67
0958:  BSF    03.5
0959:  BSF    1F.0
095A:  BSF    1F.1
095B:  BSF    1F.2
095C:  BCF    1F.3
095D:  MOVLW  07
095E:  MOVWF  1C
095F:  BCF    03.7
.................... { 
....................    lcd_init(); 
*
09D9:  BCF    0A.3
09DA:  GOTO   162
09DB:  BSF    0A.3
....................    set_tris_a(0xFF);       // Puerto A como Entrada 
09DC:  MOVLW  FF
09DD:  BSF    03.5
09DE:  MOVWF  05
....................    set_tris_b(0x00);       // Puerto B como Salida 
09DF:  MOVLW  00
09E0:  MOVWF  06
....................    output_b(0x00);         // Puerto B inicia en cero 
09E1:  CLRF   06
09E2:  BCF    03.5
09E3:  CLRF   06
....................    set_tris_c(0x00);       // Puerto C como Salida 
09E4:  BSF    03.5
09E5:  MOVWF  07
09E6:  BCF    03.5
09E7:  MOVWF  67
....................    output_c(0x00);         // Puerto C inicia en cero 
09E8:  MOVWF  67
09E9:  BSF    03.5
09EA:  CLRF   07
09EB:  BCF    03.5
09EC:  CLRF   07
....................    setup_adc_ports(an0);   // Habilito AN0 como pueto ADC 
09ED:  BSF    03.5
09EE:  BCF    1F.0
09EF:  BSF    1F.1
09F0:  BSF    1F.2
09F1:  BSF    1F.3
....................    setup_adc(adc_clock_internal);   // ADC con fuente de reloj interno 
09F2:  BCF    1F.6
09F3:  BCF    03.5
09F4:  BSF    1F.6
09F5:  BSF    1F.7
09F6:  BSF    03.5
09F7:  BSF    1F.7
09F8:  BCF    03.5
09F9:  BSF    1F.0
....................    set_adc_channel(0); 
09FA:  MOVWF  78
09FB:  MOVF   1F,W
09FC:  ANDLW  C7
09FD:  IORWF  78,W
09FE:  MOVWF  1F
....................    delay_ms(1); 
09FF:  MOVLW  01
0A00:  MOVWF  7C
0A01:  BCF    0A.3
0A02:  CALL   0D2
0A03:  BSF    0A.3
....................    Animacion(); 
0A04:  BCF    0A.3
0A05:  GOTO   24B
0A06:  BSF    0A.3
....................  
....................    BtnPediluvio=0; 
0A07:  BCF    20.1
....................    BtnZapper=1; 
0A08:  BSF    20.2
....................    output_high(PIN_C0); 
0A09:  BCF    67.0
0A0A:  MOVF   67,W
0A0B:  BSF    03.5
0A0C:  MOVWF  07
0A0D:  BCF    03.5
0A0E:  BSF    07.0
....................     
....................    while(true) 
....................    { 
.................... //    PEDILUVIO 
....................   
....................       LeerADC(); 
0A0F:  BCF    0A.3
0A10:  CALL   378
0A11:  BSF    0A.3
....................       Pediluvio(); 
0A12:  BCF    0A.3
0A13:  GOTO   6DB
0A14:  BSF    0A.3
....................        
.................... //    BOTONES 
....................  
....................       if(!input(PIN_A1)) // B-Inicio 
0A15:  BSF    03.5
0A16:  BSF    05.1
0A17:  BCF    03.5
0A18:  BTFSS  05.1
....................       { 
....................          //Pitido(); 
....................          PediluvioOperando(); 
0A19:  GOTO   000
....................       } 
0A1A:  GOTO   20F
....................    } 
.................... } 
0A1B:  SLEEP

Configuration Fuses:
   Word  1: 1F72   HS NOWDT PUT BROWNOUT NOLVP NOCPD NOWRT NODEBUG PROTECT
